ARM GAS  /var/folders/rv/m1ccwdpx5lz8hgtj5gzs6dn40000gn/T//ccuQl80x.s 			page 1


   1              		.cpu cortex-m4
   2              		.eabi_attribute 27, 1
   3              		.eabi_attribute 28, 1
   4              		.eabi_attribute 20, 1
   5              		.eabi_attribute 21, 1
   6              		.eabi_attribute 23, 3
   7              		.eabi_attribute 24, 1
   8              		.eabi_attribute 25, 1
   9              		.eabi_attribute 26, 1
  10              		.eabi_attribute 30, 2
  11              		.eabi_attribute 34, 1
  12              		.eabi_attribute 18, 4
  13              		.file	"imu.c"
  14              		.text
  15              	.Ltext0:
  16              		.cfi_sections	.debug_frame
  17              		.section	.text.get_acc_filtered.part.0,"ax",%progbits
  18              		.align	1
  19              		.p2align 4,,15
  20              		.syntax unified
  21              		.thumb
  22              		.thumb_func
  23              		.fpu fpv4-sp-d16
  24              		.type	get_acc_filtered.part.0, %function
  25              	get_acc_filtered.part.0:
  26              	.LFB274:
  27              		.file 1 "imu.c"
  28              		.loc 1 304 0
  29              		.cfi_startproc
  30              		@ args = 0, pretend = 0, frame = 8
  31              		@ frame_needed = 0, uses_anonymous_args = 0
  32              	.LVL0:
  33 0000 70B5     		push	{r4, r5, r6, lr}
  34              		.cfi_def_cfa_offset 16
  35              		.cfi_offset 4, -16
  36              		.cfi_offset 5, -12
  37              		.cfi_offset 6, -8
  38              		.cfi_offset 14, -4
  39              		.loc 1 306 0
  40 0002 124B     		ldr	r3, .L12
  41              		.loc 1 304 0
  42 0004 124E     		ldr	r6, .L12+4
  43              		.loc 1 306 0
  44 0006 1B78     		ldrb	r3, [r3]	@ zero_extendqisi2
  45              		.loc 1 304 0
  46 0008 3268     		ldr	r2, [r6]
  47 000a 82B0     		sub	sp, sp, #8
  48              		.cfi_def_cfa_offset 24
  49              		.loc 1 304 0
  50 000c 0446     		mov	r4, r0
  51 000e 0192     		str	r2, [sp, #4]
  52              		.loc 1 306 0
  53 0010 7BB1     		cbz	r3, .L2
  54              		.loc 1 309 0
  55 0012 1048     		ldr	r0, .L12+8
  56              	.LVL1:
  57              		.loc 1 307 0
ARM GAS  /var/folders/rv/m1ccwdpx5lz8hgtj5gzs6dn40000gn/T//ccuQl80x.s 			page 2


  58 0014 104A     		ldr	r2, .L12+12
  59              		.loc 1 308 0
  60 0016 114D     		ldr	r5, .L12+16
  61              		.loc 1 310 0
  62 0018 114B     		ldr	r3, .L12+20
  63              		.loc 1 309 0
  64 001a 0470     		strb	r4, [r0]
  65              		.loc 1 307 0
  66 001c 0020     		movs	r0, #0
  67 001e 1070     		strb	r0, [r2]
  68              		.loc 1 308 0
  69 0020 0122     		movs	r2, #1
  70 0022 2A70     		strb	r2, [r5]
  71              		.loc 1 310 0
  72 0024 1970     		strb	r1, [r3]
  73              	.LVL2:
  74              	.L3:
  75              		.loc 1 312 0
  76 0026 1420     		movs	r0, #20
  77 0028 FFF7FEFF 		bl	chThdSleep
  78              	.LVL3:
  79              		.loc 1 311 0
  80 002c 2B78     		ldrb	r3, [r5]	@ zero_extendqisi2
  81 002e 002B     		cmp	r3, #0
  82 0030 F9D1     		bne	.L3
  83              	.L2:
  84              		.loc 1 318 0
  85 0032 019A     		ldr	r2, [sp, #4]
  86 0034 3368     		ldr	r3, [r6]
  87              		.loc 1 315 0
  88 0036 0B49     		ldr	r1, .L12+24
  89 0038 2034     		adds	r4, r4, #32
  90              		.loc 1 318 0
  91 003a 9A42     		cmp	r2, r3
  92 003c 31F91400 		ldrsh	r0, [r1, r4, lsl #1]
  93 0040 01D1     		bne	.L11
  94 0042 02B0     		add	sp, sp, #8
  95              		.cfi_remember_state
  96              		.cfi_def_cfa_offset 16
  97              		@ sp needed
  98 0044 70BD     		pop	{r4, r5, r6, pc}
  99              	.L11:
 100              		.cfi_restore_state
 101 0046 FFF7FEFF 		bl	__stack_chk_fail
 102              	.LVL4:
 103              	.L13:
 104 004a 00BF     		.align	2
 105              	.L12:
 106 004c 00000000 		.word	.LANCHOR0
 107 0050 00000000 		.word	__stack_chk_guard
 108 0054 00000000 		.word	.LANCHOR3
 109 0058 00000000 		.word	.LANCHOR1
 110 005c 00000000 		.word	.LANCHOR2
 111 0060 00000000 		.word	.LANCHOR4
 112 0064 00000000 		.word	.LANCHOR5
 113              		.cfi_endproc
 114              	.LFE274:
ARM GAS  /var/folders/rv/m1ccwdpx5lz8hgtj5gzs6dn40000gn/T//ccuQl80x.s 			page 3


 115              		.size	get_acc_filtered.part.0, .-get_acc_filtered.part.0
 116              		.section	.text.get_gyro_filtered.part.1,"ax",%progbits
 117              		.align	1
 118              		.p2align 4,,15
 119              		.syntax unified
 120              		.thumb
 121              		.thumb_func
 122              		.fpu fpv4-sp-d16
 123              		.type	get_gyro_filtered.part.1, %function
 124              	get_gyro_filtered.part.1:
 125              	.LFB275:
 126              		.loc 1 361 0
 127              		.cfi_startproc
 128              		@ args = 0, pretend = 0, frame = 8
 129              		@ frame_needed = 0, uses_anonymous_args = 0
 130              	.LVL5:
 131 0000 70B5     		push	{r4, r5, r6, lr}
 132              		.cfi_def_cfa_offset 16
 133              		.cfi_offset 4, -16
 134              		.cfi_offset 5, -12
 135              		.cfi_offset 6, -8
 136              		.cfi_offset 14, -4
 137              		.loc 1 363 0
 138 0002 124B     		ldr	r3, .L24
 139              		.loc 1 361 0
 140 0004 124D     		ldr	r5, .L24+4
 141              		.loc 1 363 0
 142 0006 1B78     		ldrb	r3, [r3]	@ zero_extendqisi2
 143              		.loc 1 361 0
 144 0008 2A68     		ldr	r2, [r5]
 145 000a 82B0     		sub	sp, sp, #8
 146              		.cfi_def_cfa_offset 24
 147              		.loc 1 361 0
 148 000c 0646     		mov	r6, r0
 149 000e 0192     		str	r2, [sp, #4]
 150              		.loc 1 363 0
 151 0010 7BB1     		cbz	r3, .L15
 152              		.loc 1 366 0
 153 0012 1048     		ldr	r0, .L24+8
 154              	.LVL6:
 155              		.loc 1 364 0
 156 0014 104A     		ldr	r2, .L24+12
 157              		.loc 1 365 0
 158 0016 114C     		ldr	r4, .L24+16
 159              		.loc 1 367 0
 160 0018 114B     		ldr	r3, .L24+20
 161              		.loc 1 366 0
 162 001a 0670     		strb	r6, [r0]
 163              		.loc 1 364 0
 164 001c 0020     		movs	r0, #0
 165 001e 1070     		strb	r0, [r2]
 166              		.loc 1 365 0
 167 0020 0122     		movs	r2, #1
 168 0022 2270     		strb	r2, [r4]
 169              		.loc 1 367 0
 170 0024 1970     		strb	r1, [r3]
 171              	.LVL7:
ARM GAS  /var/folders/rv/m1ccwdpx5lz8hgtj5gzs6dn40000gn/T//ccuQl80x.s 			page 4


 172              	.L16:
 173              		.loc 1 369 0
 174 0026 1420     		movs	r0, #20
 175 0028 FFF7FEFF 		bl	chThdSleep
 176              	.LVL8:
 177              		.loc 1 368 0
 178 002c 2378     		ldrb	r3, [r4]	@ zero_extendqisi2
 179 002e 002B     		cmp	r3, #0
 180 0030 F9D1     		bne	.L16
 181              	.L15:
 182              		.loc 1 372 0
 183 0032 0C48     		ldr	r0, .L24+24
 184              		.loc 1 375 0
 185 0034 019A     		ldr	r2, [sp, #4]
 186 0036 2B68     		ldr	r3, [r5]
 187              		.loc 1 372 0
 188 0038 00EB4600 		add	r0, r0, r6, lsl #1
 189              		.loc 1 375 0
 190 003c 9A42     		cmp	r2, r3
 191 003e B0F94600 		ldrsh	r0, [r0, #70]
 192 0042 01D1     		bne	.L23
 193 0044 02B0     		add	sp, sp, #8
 194              		.cfi_remember_state
 195              		.cfi_def_cfa_offset 16
 196              		@ sp needed
 197 0046 70BD     		pop	{r4, r5, r6, pc}
 198              	.L23:
 199              		.cfi_restore_state
 200 0048 FFF7FEFF 		bl	__stack_chk_fail
 201              	.LVL9:
 202              	.L25:
 203              		.align	2
 204              	.L24:
 205 004c 00000000 		.word	.LANCHOR0
 206 0050 00000000 		.word	__stack_chk_guard
 207 0054 00000000 		.word	.LANCHOR8
 208 0058 00000000 		.word	.LANCHOR6
 209 005c 00000000 		.word	.LANCHOR7
 210 0060 00000000 		.word	.LANCHOR9
 211 0064 00000000 		.word	.LANCHOR5
 212              		.cfi_endproc
 213              	.LFE275:
 214              		.size	get_gyro_filtered.part.1, .-get_gyro_filtered.part.1
 215              		.section	.text.chprintf.constprop.2,"ax",%progbits
 216              		.align	1
 217              		.p2align 4,,15
 218              		.syntax unified
 219              		.thumb
 220              		.thumb_func
 221              		.fpu fpv4-sp-d16
 222              		.type	chprintf.constprop.2, %function
 223              	chprintf.constprop.2:
 224              	.LFB276:
 225              		.file 2 "../../lib/e-puck2_main-processor/ChibiOS//os/hal/lib/streams/chprintf.h"
 226              		.loc 2 69 0
 227              		.cfi_startproc
 228              		@ args = 4, pretend = 12, frame = 8
ARM GAS  /var/folders/rv/m1ccwdpx5lz8hgtj5gzs6dn40000gn/T//ccuQl80x.s 			page 5


 229              		@ frame_needed = 0, uses_anonymous_args = 1
 230              	.LVL10:
 231 0000 0EB4     		push	{r1, r2, r3}
 232              		.cfi_def_cfa_offset 12
 233              		.cfi_offset 1, -12
 234              		.cfi_offset 2, -8
 235              		.cfi_offset 3, -4
 236 0002 10B5     		push	{r4, lr}
 237              		.cfi_def_cfa_offset 20
 238              		.cfi_offset 4, -20
 239              		.cfi_offset 14, -16
 240 0004 0A4C     		ldr	r4, .L30
 241              		.loc 2 74 0
 242 0006 0B49     		ldr	r1, .L30+4
 243              		.loc 2 69 0
 244 0008 2368     		ldr	r3, [r4]
 245              		.loc 2 74 0
 246 000a 0B48     		ldr	r0, .L30+8
 247              	.LVL11:
 248              		.loc 2 69 0
 249 000c 83B0     		sub	sp, sp, #12
 250              		.cfi_def_cfa_offset 32
 251              		.loc 2 69 0
 252 000e 0193     		str	r3, [sp, #4]
 253              	.LVL12:
 254              		.loc 2 73 0
 255 0010 06AB     		add	r3, sp, #24
 256              		.loc 2 74 0
 257 0012 1A46     		mov	r2, r3
 258              		.loc 2 73 0
 259 0014 0093     		str	r3, [sp]
 260              		.loc 2 74 0
 261 0016 FFF7FEFF 		bl	chvprintf
 262              	.LVL13:
 263              		.loc 2 78 0
 264 001a 019A     		ldr	r2, [sp, #4]
 265 001c 2368     		ldr	r3, [r4]
 266 001e 9A42     		cmp	r2, r3
 267 0020 04D1     		bne	.L29
 268 0022 03B0     		add	sp, sp, #12
 269              		.cfi_remember_state
 270              		.cfi_def_cfa_offset 20
 271              		@ sp needed
 272 0024 BDE81040 		pop	{r4, lr}
 273              		.cfi_restore 14
 274              		.cfi_restore 4
 275              		.cfi_def_cfa_offset 12
 276 0028 03B0     		add	sp, sp, #12
 277              		.cfi_restore 3
 278              		.cfi_restore 2
 279              		.cfi_restore 1
 280              		.cfi_def_cfa_offset 0
 281 002a 7047     		bx	lr
 282              	.L29:
 283              		.cfi_restore_state
 284 002c FFF7FEFF 		bl	__stack_chk_fail
 285              	.LVL14:
ARM GAS  /var/folders/rv/m1ccwdpx5lz8hgtj5gzs6dn40000gn/T//ccuQl80x.s 			page 6


 286              	.L31:
 287              		.align	2
 288              	.L30:
 289 0030 00000000 		.word	__stack_chk_guard
 290 0034 00000000 		.word	.LC0
 291 0038 00000000 		.word	SD3
 292              		.cfi_endproc
 293              	.LFE276:
 294              		.size	chprintf.constprop.2, .-chprintf.constprop.2
 295              		.section	.text.imu_reader_thd,"ax",%progbits
 296              		.align	1
 297              		.p2align 4,,15
 298              		.syntax unified
 299              		.thumb
 300              		.thumb_func
 301              		.fpu fpv4-sp-d16
 302              		.type	imu_reader_thd, %function
 303              	imu_reader_thd:
 304              	.LFB258:
 305              		.loc 1 153 0
 306              		.cfi_startproc
 307              		@ args = 0, pretend = 0, frame = 160
 308              		@ frame_needed = 0, uses_anonymous_args = 0
 309              	.LVL15:
 310 0000 2DE9F04F 		push	{r4, r5, r6, r7, r8, r9, r10, fp, lr}
 311              		.cfi_def_cfa_offset 36
 312              		.cfi_offset 4, -36
 313              		.cfi_offset 5, -32
 314              		.cfi_offset 6, -28
 315              		.cfi_offset 7, -24
 316              		.cfi_offset 8, -20
 317              		.cfi_offset 9, -16
 318              		.cfi_offset 10, -12
 319              		.cfi_offset 11, -8
 320              		.cfi_offset 14, -4
 321              	.LBB76:
 322              	.LBB77:
 323              		.file 3 "../../lib/e-puck2_main-processor/ChibiOS//os/rt/include/chregistry.h"
 324              		.loc 3 135 0
 325 0004 7D4C     		ldr	r4, .L59
 326 0006 7E4A     		ldr	r2, .L59+4
 327 0008 A369     		ldr	r3, [r4, #24]
 328              	.LBE77:
 329              	.LBE76:
 330              		.loc 1 160 0
 331 000a 7E48     		ldr	r0, .L59+8
 332              	.LVL16:
 333              	.LBB79:
 334              	.LBB78:
 335              		.loc 3 135 0
 336 000c 9A61     		str	r2, [r3, #24]
 337              	.LBE78:
 338              	.LBE79:
 339              		.loc 1 153 0
 340 000e 7E4A     		ldr	r2, .L59+12
 341 0010 AFB0     		sub	sp, sp, #188
 342              		.cfi_def_cfa_offset 224
ARM GAS  /var/folders/rv/m1ccwdpx5lz8hgtj5gzs6dn40000gn/T//ccuQl80x.s 			page 7


 343              		.loc 1 160 0
 344 0012 0123     		movs	r3, #1
 345              		.loc 1 153 0
 346 0014 1268     		ldr	r2, [r2]
 347 0016 2D92     		str	r2, [sp, #180]
 348              		.loc 1 160 0
 349 0018 0CA9     		add	r1, sp, #48
 350 001a 1A46     		mov	r2, r3
 351 001c FFF7FEFF 		bl	chEvtRegisterMaskWithFlags
 352              	.LVL17:
 353              		.loc 1 166 0
 354 0020 11AD     		add	r5, sp, #68
 355              		.loc 1 167 0
 356 0022 0AAB     		add	r3, sp, #40
 357              		.loc 1 168 0
 358 0024 5022     		movs	r2, #80
 359 0026 2946     		mov	r1, r5
 360 0028 0092     		str	r2, [sp]
 361 002a 16A8     		add	r0, sp, #88
 362 002c 1A46     		mov	r2, r3
 363              		.loc 1 166 0
 364 002e CDE91155 		strd	r5, r5, [sp, #68]
 365              		.loc 1 167 0
 366 0032 CDE90A33 		strd	r3, r3, [sp, #40]
 367              		.loc 1 166 0
 368 0036 0025     		movs	r5, #0
 369              		.loc 1 168 0
 370 0038 744B     		ldr	r3, .L59+16
 371              		.loc 1 166 0
 372 003a 1595     		str	r5, [sp, #84]
 373 003c CDE91355 		strd	r5, r5, [sp, #76]
 374              		.loc 1 168 0
 375 0040 FFF7FEFF 		bl	messagebus_topic_init
 376              	.LVL18:
 377              		.loc 1 169 0
 378 0044 16A9     		add	r1, sp, #88
 379 0046 724A     		ldr	r2, .L59+20
 380 0048 7248     		ldr	r0, .L59+24
 381 004a FFF7FEFF 		bl	messagebus_advertise_topic
 382              	.LVL19:
 383              	.LBB80:
 384              	.LBB81:
 385              		.file 4 "../../lib/e-puck2_main-processor/ChibiOS//os/rt/include/chthreads.h"
 386              		.loc 4 233 0
 387 004e A369     		ldr	r3, [r4, #24]
 388              	.LBE81:
 389              	.LBE80:
 390              		.loc 1 177 0
 391 0050 93F82160 		ldrb	r6, [r3, #33]	@ zero_extendqisi2
 392 0054 16F00406 		ands	r6, r6, #4
 393 0058 40F08380 		bne	.L32
 394 005c 6B4F     		ldr	r7, .L59+16
 395 005e DFF8E0B1 		ldr	fp, .L59+68
 396 0062 DFF8E091 		ldr	r9, .L59+72
 397 0066 DFF8E081 		ldr	r8, .L59+76
 398              		.loc 1 187 0
 399 006a 07F13403 		add	r3, r7, #52
ARM GAS  /var/folders/rv/m1ccwdpx5lz8hgtj5gzs6dn40000gn/T//ccuQl80x.s 			page 8


 400              		.loc 1 173 0
 401 006e B246     		mov	r10, r6
 402              		.loc 1 171 0
 403 0070 CDE90766 		strd	r6, r6, [sp, #28]
 404              		.loc 1 187 0
 405 0074 0993     		str	r3, [sp, #36]
 406 0076 3FE0     		b	.L42
 407              	.LVL20:
 408              	.L35:
 409              		.loc 1 194 0
 410 0078 5022     		movs	r2, #80
 411 007a 6449     		ldr	r1, .L59+16
 412 007c 16A8     		add	r0, sp, #88
 413 007e FFF7FEFF 		bl	messagebus_topic_publish
 414              	.LVL21:
 415              		.loc 1 196 0
 416 0082 99F80030 		ldrb	r3, [r9]	@ zero_extendqisi2
 417 0086 B3B1     		cbz	r3, .L36
 418              		.loc 1 197 0
 419 0088 634A     		ldr	r2, .L59+28
 420 008a 1378     		ldrb	r3, [r2]	@ zero_extendqisi2
 421 008c 002B     		cmp	r3, #0
 422 008e 70D0     		beq	.L37
 423 0090 012B     		cmp	r3, #1
 424 0092 10D1     		bne	.L36
 425              		.loc 1 206 0
 426 0094 614B     		ldr	r3, .L59+32
 427              		.loc 1 207 0
 428 0096 0798     		ldr	r0, [sp, #28]
 429              		.loc 1 206 0
 430 0098 1B78     		ldrb	r3, [r3]	@ zero_extendqisi2
 431              		.loc 1 208 0
 432 009a 614A     		ldr	r2, .L59+36
 433              		.loc 1 206 0
 434 009c 03F11401 		add	r1, r3, #20
 435              		.loc 1 208 0
 436 00a0 1278     		ldrb	r2, [r2]	@ zero_extendqisi2
 437              		.loc 1 206 0
 438 00a2 37F911C0 		ldrsh	ip, [r7, r1, lsl #1]
 439 00a6 0899     		ldr	r1, [sp, #32]
 440              		.loc 1 207 0
 441 00a8 0130     		adds	r0, r0, #1
 442 00aa C0B2     		uxtb	r0, r0
 443              		.loc 1 206 0
 444 00ac 6144     		add	r1, r1, ip
 445              		.loc 1 208 0
 446 00ae 8242     		cmp	r2, r0
 447              		.loc 1 207 0
 448 00b0 0790     		str	r0, [sp, #28]
 449              	.LVL22:
 450              		.loc 1 206 0
 451 00b2 0891     		str	r1, [sp, #32]
 452              	.LVL23:
 453              		.loc 1 208 0
 454 00b4 71D0     		beq	.L56
 455              	.LVL24:
 456              	.L36:
ARM GAS  /var/folders/rv/m1ccwdpx5lz8hgtj5gzs6dn40000gn/T//ccuQl80x.s 			page 9


 457              		.loc 1 220 0
 458 00b6 98F80030 		ldrb	r3, [r8]	@ zero_extendqisi2
 459 00ba A3B1     		cbz	r3, .L39
 460              		.loc 1 221 0
 461 00bc 594A     		ldr	r2, .L59+40
 462 00be 1378     		ldrb	r3, [r2]	@ zero_extendqisi2
 463 00c0 002B     		cmp	r3, #0
 464 00c2 60D0     		beq	.L40
 465 00c4 012B     		cmp	r3, #1
 466 00c6 0ED1     		bne	.L39
 467              		.loc 1 230 0
 468 00c8 574B     		ldr	r3, .L59+44
 469              		.loc 1 232 0
 470 00ca 584A     		ldr	r2, .L59+48
 471              		.loc 1 230 0
 472 00cc 1B78     		ldrb	r3, [r3]	@ zero_extendqisi2
 473              		.loc 1 232 0
 474 00ce 1278     		ldrb	r2, [r2]	@ zero_extendqisi2
 475              		.loc 1 230 0
 476 00d0 07EB4301 		add	r1, r7, r3, lsl #1
 477              		.loc 1 231 0
 478 00d4 0AF1010A 		add	r10, r10, #1
 479              	.LVL25:
 480              		.loc 1 230 0
 481 00d8 B1F92E10 		ldrsh	r1, [r1, #46]
 482              		.loc 1 231 0
 483 00dc 5FFA8AFA 		uxtb	r10, r10
 484              		.loc 1 232 0
 485 00e0 5245     		cmp	r2, r10
 486              		.loc 1 230 0
 487 00e2 0E44     		add	r6, r6, r1
 488              	.LVL26:
 489              		.loc 1 232 0
 490 00e4 72D0     		beq	.L57
 491              	.LVL27:
 492              	.L39:
 493              		.loc 1 244 0
 494 00e6 291D     		adds	r1, r5, #4
 495 00e8 2846     		mov	r0, r5
 496 00ea FFF7FEFF 		bl	chThdSleepUntilWindowed
 497              	.LVL28:
 498              	.LBB83:
 499              	.LBB82:
 500              		.loc 4 233 0
 501 00ee A369     		ldr	r3, [r4, #24]
 502              	.LBE82:
 503              	.LBE83:
 504              		.loc 1 177 0
 505 00f0 93F82130 		ldrb	r3, [r3, #33]	@ zero_extendqisi2
 506 00f4 5B07     		lsls	r3, r3, #29
 507 00f6 34D4     		bmi	.L32
 508              	.LVL29:
 509              	.L42:
 510              	.LBB84:
 511              	.LBB85:
 512              	.LBB86:
 513              	.LBB87:
ARM GAS  /var/folders/rv/m1ccwdpx5lz8hgtj5gzs6dn40000gn/T//ccuQl80x.s 			page 10


 514              	.LBB88:
 515              	.LBB89:
 516              	.LBB90:
 517              		.file 5 "../../lib/e-puck2_main-processor/ChibiOS//os/ext/CMSIS/include/core_cmFunc.h"
 518              		.loc 5 546 0
 519 00f8 2023     		movs	r3, #32
 520              		.syntax unified
 521              	@ 546 "../../lib/e-puck2_main-processor/ChibiOS//os/ext/CMSIS/include/core_cmFunc.h" 1
 522 00fa 83F31188 		MSR basepri, r3
 523              	@ 0 "" 2
 524              	.LVL30:
 525              		.thumb
 526              		.syntax unified
 527              	.LBE90:
 528              	.LBE89:
 529              	.LBE88:
 530              		.file 6 "../../lib/e-puck2_main-processor/ChibiOS//os/rt/include/chsys.h"
 531              		.loc 6 349 0
 532 00fe FFF7FEFF 		bl	_stats_start_measure_crit_thd
 533              	.LVL31:
 534              		.loc 6 350 0
 535 0102 FFF7FEFF 		bl	_dbg_check_lock
 536              	.LVL32:
 537              	.LBE87:
 538              	.LBE86:
 539              	.LBB91:
 540              	.LBB92:
 541              		.file 7 "../../lib/e-puck2_main-processor/ChibiOS//os/rt/include/chvt.h"
 542              		.loc 7 231 0
 543 0106 A56A     		ldr	r5, [r4, #40]
 544              	.LBE92:
 545              	.LBE91:
 546              	.LBB93:
 547              	.LBB94:
 548              		.loc 6 360 0
 549 0108 FFF7FEFF 		bl	_dbg_check_unlock
 550              	.LVL33:
 551              		.loc 6 361 0
 552 010c FFF7FEFF 		bl	_stats_stop_measure_crit_thd
 553              	.LVL34:
 554              		.loc 6 367 0
 555 0110 2368     		ldr	r3, [r4]
 556 0112 A342     		cmp	r3, r4
 557 0114 07D0     		beq	.L34
 558 0116 A269     		ldr	r2, [r4, #24]
 559 0118 9B68     		ldr	r3, [r3, #8]
 560 011a 9268     		ldr	r2, [r2, #8]
 561 011c 9A42     		cmp	r2, r3
 562 011e 02D2     		bcs	.L34
 563 0120 4348     		ldr	r0, .L59+52
 564 0122 FFF7FEFF 		bl	chSysHalt
 565              	.LVL35:
 566              	.L34:
 567              	.LBB95:
 568              	.LBB96:
 569              	.LBB97:
 570              		.loc 5 546 0
ARM GAS  /var/folders/rv/m1ccwdpx5lz8hgtj5gzs6dn40000gn/T//ccuQl80x.s 			page 11


 571 0126 0023     		movs	r3, #0
 572              		.syntax unified
 573              	@ 546 "../../lib/e-puck2_main-processor/ChibiOS//os/ext/CMSIS/include/core_cmFunc.h" 1
 574 0128 83F31188 		MSR basepri, r3
 575              	@ 0 "" 2
 576              	.LVL36:
 577              		.thumb
 578              		.syntax unified
 579              	.LBE97:
 580              	.LBE96:
 581              	.LBE95:
 582              	.LBE94:
 583              	.LBE93:
 584              	.LBE85:
 585              	.LBE84:
 586              		.loc 1 185 0
 587 012c 9BF80030 		ldrb	r3, [fp]	@ zero_extendqisi2
 588 0130 002B     		cmp	r3, #0
 589 0132 A1D0     		beq	.L35
 590              		.loc 1 187 0
 591 0134 3F48     		ldr	r0, .L59+56
 592 0136 0999     		ldr	r1, [sp, #36]
 593 0138 00F11203 		add	r3, r0, #18
 594 013c A0F11202 		sub	r2, r0, #18
 595 0140 0493     		str	r3, [sp, #16]
 596 0142 A0F10C03 		sub	r3, r0, #12
 597 0146 CDE90201 		strd	r0, r1, [sp, #8]
 598 014a CDE90032 		strd	r3, r2, [sp]
 599 014e A0F13A01 		sub	r1, r0, #58
 600 0152 A0F11E03 		sub	r3, r0, #30
 601 0156 A0F12202 		sub	r2, r0, #34
 602 015a 2E38     		subs	r0, r0, #46
 603 015c FFF7FEFF 		bl	mpu9250_read
 604              	.LVL37:
 605 0160 8AE7     		b	.L35
 606              	.LVL38:
 607              	.L32:
 608              		.loc 1 247 0
 609 0162 294B     		ldr	r3, .L59+12
 610 0164 2D9A     		ldr	r2, [sp, #180]
 611 0166 1B68     		ldr	r3, [r3]
 612 0168 9A42     		cmp	r2, r3
 613 016a 45D1     		bne	.L58
 614 016c 2FB0     		add	sp, sp, #188
 615              		.cfi_remember_state
 616              		.cfi_def_cfa_offset 36
 617              		@ sp needed
 618 016e BDE8F08F 		pop	{r4, r5, r6, r7, r8, r9, r10, fp, pc}
 619              	.LVL39:
 620              	.L37:
 621              		.cfi_restore_state
 622              		.loc 1 199 0
 623 0172 2A49     		ldr	r1, .L59+32
 624              		.loc 1 200 0
 625 0174 0893     		str	r3, [sp, #32]
 626              	.LVL40:
 627              		.loc 1 199 0
ARM GAS  /var/folders/rv/m1ccwdpx5lz8hgtj5gzs6dn40000gn/T//ccuQl80x.s 			page 12


 628 0176 0978     		ldrb	r1, [r1]	@ zero_extendqisi2
 629              		.loc 1 201 0
 630 0178 0793     		str	r3, [sp, #28]
 631              	.LVL41:
 632              		.loc 1 199 0
 633 017a 07EB4101 		add	r1, r7, r1, lsl #1
 634              		.loc 1 202 0
 635 017e 0120     		movs	r0, #1
 636              		.loc 1 199 0
 637 0180 8B86     		strh	r3, [r1, #52]	@ movhi
 638              	.LVL42:
 639              		.loc 1 202 0
 640 0182 1070     		strb	r0, [r2]
 641              		.loc 1 203 0
 642 0184 97E7     		b	.L36
 643              	.LVL43:
 644              	.L40:
 645              		.loc 1 223 0
 646 0186 2849     		ldr	r1, .L59+44
 647 0188 0978     		ldrb	r1, [r1]	@ zero_extendqisi2
 648 018a 07EB4101 		add	r1, r7, r1, lsl #1
 649              		.loc 1 226 0
 650 018e 0120     		movs	r0, #1
 651              		.loc 1 224 0
 652 0190 1E46     		mov	r6, r3
 653              	.LVL44:
 654              		.loc 1 223 0
 655 0192 4B87     		strh	r3, [r1, #58]	@ movhi
 656              	.LVL45:
 657              		.loc 1 225 0
 658 0194 9A46     		mov	r10, r3
 659              		.loc 1 226 0
 660 0196 1070     		strb	r0, [r2]
 661              		.loc 1 227 0
 662 0198 A5E7     		b	.L39
 663              	.LVL46:
 664              	.L56:
 665              		.loc 1 209 0
 666 019a 0A46     		mov	r2, r1
 667 019c 92FBF0F2 		sdiv	r2, r2, r0
 668              		.loc 1 211 0
 669 01a0 2548     		ldr	r0, .L59+60
 670              	.LVL47:
 671 01a2 90F800E0 		ldrb	lr, [r0]	@ zero_extendqisi2
 672              		.loc 1 209 0
 673 01a6 03F12001 		add	r1, r3, #32
 674              	.LVL48:
 675 01aa 12B2     		sxth	r2, r2
 676              		.loc 1 210 0
 677 01ac 4FF0000C 		mov	ip, #0
 678              		.loc 1 211 0
 679 01b0 BEF1010F 		cmp	lr, #1
 680              		.loc 1 209 0
 681 01b4 27F81120 		strh	r2, [r7, r1, lsl #1]	@ movhi
 682              		.loc 1 210 0
 683 01b8 89F800C0 		strb	ip, [r9]
 684              		.loc 1 211 0
ARM GAS  /var/folders/rv/m1ccwdpx5lz8hgtj5gzs6dn40000gn/T//ccuQl80x.s 			page 13


 685 01bc 7FF47BAF 		bne	.L36
 686              		.loc 1 212 0
 687 01c0 07EB4303 		add	r3, r7, r3, lsl #1
 688              		.loc 1 213 0
 689 01c4 80F800C0 		strb	ip, [r0]
 690              		.loc 1 212 0
 691 01c8 9A86     		strh	r2, [r3, #52]	@ movhi
 692 01ca 74E7     		b	.L36
 693              	.L57:
 694              		.loc 1 235 0
 695 01cc 1B48     		ldr	r0, .L59+64
 696              		.loc 1 233 0
 697 01ce 96FBFAF2 		sdiv	r2, r6, r10
 698              		.loc 1 235 0
 699 01d2 90F800E0 		ldrb	lr, [r0]	@ zero_extendqisi2
 700              		.loc 1 233 0
 701 01d6 07EB4301 		add	r1, r7, r3, lsl #1
 702 01da 12B2     		sxth	r2, r2
 703              		.loc 1 234 0
 704 01dc 4FF0000C 		mov	ip, #0
 705              		.loc 1 235 0
 706 01e0 BEF1010F 		cmp	lr, #1
 707              		.loc 1 233 0
 708 01e4 A1F84620 		strh	r2, [r1, #70]	@ movhi
 709              		.loc 1 234 0
 710 01e8 88F800C0 		strb	ip, [r8]
 711              		.loc 1 235 0
 712 01ec 7FF47BAF 		bne	.L39
 713              		.loc 1 237 0
 714 01f0 80F800C0 		strb	ip, [r0]
 715              		.loc 1 236 0
 716 01f4 4A87     		strh	r2, [r1, #58]	@ movhi
 717 01f6 76E7     		b	.L39
 718              	.LVL49:
 719              	.L58:
 720              		.loc 1 247 0
 721 01f8 FFF7FEFF 		bl	__stack_chk_fail
 722              	.LVL50:
 723              	.L60:
 724              		.align	2
 725              	.L59:
 726 01fc 00000000 		.word	ch
 727 0200 00000000 		.word	.LANCHOR10
 728 0204 00000000 		.word	exti_events
 729 0208 00000000 		.word	__stack_chk_guard
 730 020c 00000000 		.word	.LANCHOR5
 731 0210 00000000 		.word	.LC1
 732 0214 00000000 		.word	bus
 733 0218 00000000 		.word	.LANCHOR1
 734 021c 00000000 		.word	.LANCHOR3
 735 0220 00000000 		.word	.LANCHOR4
 736 0224 00000000 		.word	.LANCHOR6
 737 0228 00000000 		.word	.LANCHOR8
 738 022c 00000000 		.word	.LANCHOR9
 739 0230 00000000 		.word	.LANCHOR11
 740 0234 3A000000 		.word	.LANCHOR5+58
 741 0238 00000000 		.word	.LANCHOR12
ARM GAS  /var/folders/rv/m1ccwdpx5lz8hgtj5gzs6dn40000gn/T//ccuQl80x.s 			page 14


 742 023c 00000000 		.word	.LANCHOR13
 743 0240 00000000 		.word	.LANCHOR0
 744 0244 00000000 		.word	.LANCHOR2
 745 0248 00000000 		.word	.LANCHOR7
 746              		.cfi_endproc
 747              	.LFE258:
 748              		.size	imu_reader_thd, .-imu_reader_thd
 749              		.global	__aeabi_f2d
 750              		.global	__aeabi_d2f
 751              		.section	.text.show_gravity,"ax",%progbits
 752              		.align	1
 753              		.p2align 4,,15
 754              		.global	show_gravity
 755              		.syntax unified
 756              		.thumb
 757              		.thumb_func
 758              		.fpu fpv4-sp-d16
 759              		.type	show_gravity, %function
 760              	show_gravity:
 761              	.LFB257:
 762              		.loc 1 31 0
 763              		.cfi_startproc
 764              		@ args = 0, pretend = 0, frame = 16
 765              		@ frame_needed = 0, uses_anonymous_args = 0
 766              	.LVL51:
 767 0000 70B5     		push	{r4, r5, r6, lr}
 768              		.cfi_def_cfa_offset 16
 769              		.cfi_offset 4, -16
 770              		.cfi_offset 5, -12
 771              		.cfi_offset 6, -8
 772              		.cfi_offset 14, -4
 773 0002 2DED028B 		vpush.64	{d8}
 774              		.cfi_def_cfa_offset 24
 775              		.cfi_offset 80, -24
 776              		.cfi_offset 81, -20
 777              		.loc 1 64 0
 778 0006 D0ED007A 		vldr.32	s15, [r0]
 779              		.loc 1 31 0
 780 000a 774D     		ldr	r5, .L99
 781              		.loc 1 64 0
 782 000c 9FED777A 		vldr.32	s14, .L99+4
 783              		.loc 1 31 0
 784 0010 2B68     		ldr	r3, [r5]
 785 0012 84B0     		sub	sp, sp, #16
 786              		.cfi_def_cfa_offset 40
 787              		.loc 1 64 0
 788 0014 F0EEE77A 		vabs.f32	s15, s15
 789 0018 F4EEC77A 		vcmpe.f32	s15, s14
 790              		.loc 1 31 0
 791 001c 0393     		str	r3, [sp, #12]
 792              	.LVL52:
 793              		.loc 1 64 0
 794 001e F1EE10FA 		vmrs	APSR_nzcv, FPSCR
 795              		.loc 1 42 0
 796 0022 4FF00003 		mov	r3, #0
 797              		.loc 1 31 0
 798 0026 0446     		mov	r4, r0
ARM GAS  /var/folders/rv/m1ccwdpx5lz8hgtj5gzs6dn40000gn/T//ccuQl80x.s 			page 15


 799              		.loc 1 42 0
 800 0028 ADF80A30 		strh	r3, [sp, #10]	@ movhi
 801              		.loc 1 64 0
 802 002c 09DC     		bgt	.L62
 803              		.loc 1 64 0 is_stmt 0 discriminator 1
 804 002e D0ED017A 		vldr.32	s15, [r0, #4]
 805 0032 F0EEE77A 		vabs.f32	s15, s15
 806 0036 F4EEC77A 		vcmpe.f32	s15, s14
 807 003a F1EE10FA 		vmrs	APSR_nzcv, FPSCR
 808 003e 40F39180 		ble	.L63
 809              	.L62:
 810              	.LVL53:
 811              	.LBB109:
 812              	.LBB110:
 813              	.LBB111:
 814              	.LBB112:
 815              	.LBB113:
 816              	.LBB114:
 817              		.loc 5 546 0 is_stmt 1
 818 0042 2023     		movs	r3, #32
 819              		.syntax unified
 820              	@ 546 "../../lib/e-puck2_main-processor/ChibiOS//os/ext/CMSIS/include/core_cmFunc.h" 1
 821 0044 83F31188 		MSR basepri, r3
 822              	@ 0 "" 2
 823              	.LVL54:
 824              		.thumb
 825              		.syntax unified
 826              	.LBE114:
 827              	.LBE113:
 828              	.LBE112:
 829              	.LBE111:
 830              	.LBE110:
 831              		.loc 1 68 0
 832 0048 694E     		ldr	r6, .L99+8
 833              	.LBB116:
 834              	.LBB115:
 835              		.loc 6 349 0
 836 004a FFF7FEFF 		bl	_stats_start_measure_crit_thd
 837              	.LVL55:
 838              		.loc 6 350 0
 839 004e FFF7FEFF 		bl	_dbg_check_lock
 840              	.LVL56:
 841              	.LBE115:
 842              	.LBE116:
 843              		.loc 1 68 0
 844 0052 F368     		ldr	r3, [r6, #12]
 845 0054 0022     		movs	r2, #0
 846 0056 5A62     		str	r2, [r3, #36]
 847              		.loc 1 70 0
 848 0058 6068     		ldr	r0, [r4, #4]	@ float
 849 005a FFF7FEFF 		bl	__aeabi_f2d
 850              	.LVL57:
 851 005e CDE90001 		strd	r0, [sp]
 852 0062 2068     		ldr	r0, [r4]	@ float
 853 0064 FFF7FEFF 		bl	__aeabi_f2d
 854              	.LVL58:
 855 0068 9DED001B 		vldr.64	d1, [sp]
ARM GAS  /var/folders/rv/m1ccwdpx5lz8hgtj5gzs6dn40000gn/T//ccuQl80x.s 			page 16


 856 006c 41EC100B 		vmov	d0, r0, r1
 857 0070 FFF7FEFF 		bl	atan2
 858              	.LVL59:
 859 0074 51EC100B 		vmov	r0, r1, d0
 860 0078 FFF7FEFF 		bl	__aeabi_d2f
 861              	.LVL60:
 862              		.loc 1 72 0
 863 007c F368     		ldr	r3, [r6, #12]
 864 007e 5B6A     		ldr	r3, [r3, #36]
 865 0080 9BB2     		uxth	r3, r3
 866 0082 ADF80A30 		strh	r3, [sp, #10]	@ movhi
 867              		.loc 1 70 0
 868 0086 08EE100A 		vmov	s16, r0
 869              	.LVL61:
 870              	.LBB117:
 871              	.LBB118:
 872              		.loc 6 360 0
 873 008a FFF7FEFF 		bl	_dbg_check_unlock
 874              	.LVL62:
 875              		.loc 6 361 0
 876 008e FFF7FEFF 		bl	_stats_stop_measure_crit_thd
 877              	.LVL63:
 878              		.loc 6 367 0
 879 0092 584B     		ldr	r3, .L99+12
 880 0094 1A68     		ldr	r2, [r3]
 881 0096 9A42     		cmp	r2, r3
 882 0098 04D0     		beq	.L65
 883 009a 9969     		ldr	r1, [r3, #24]
 884 009c 9368     		ldr	r3, [r2, #8]
 885 009e 8A68     		ldr	r2, [r1, #8]
 886 00a0 9A42     		cmp	r2, r3
 887 00a2 62D3     		bcc	.L94
 888              	.L65:
 889              	.LVL64:
 890              	.LBB119:
 891              	.LBB120:
 892              	.LBB121:
 893              		.loc 5 546 0
 894 00a4 0023     		movs	r3, #0
 895              		.syntax unified
 896              	@ 546 "../../lib/e-puck2_main-processor/ChibiOS//os/ext/CMSIS/include/core_cmFunc.h" 1
 897 00a6 83F31188 		MSR basepri, r3
 898              	@ 0 "" 2
 899              	.LVL65:
 900              		.thumb
 901              		.syntax unified
 902              	.LBE121:
 903              	.LBE120:
 904              	.LBE119:
 905              	.LBE118:
 906              	.LBE117:
 907              		.loc 1 76 0
 908 00aa 9FED537A 		vldr.32	s14, .L99+16
 909              		.loc 1 80 0
 910 00ae DFED537A 		vldr.32	s15, .L99+20
 911              		.loc 1 76 0
 912 00b2 38EE078A 		vadd.f32	s16, s16, s14
ARM GAS  /var/folders/rv/m1ccwdpx5lz8hgtj5gzs6dn40000gn/T//ccuQl80x.s 			page 17


 913              	.LVL66:
 914              		.loc 1 80 0
 915 00b6 B4EEE78A 		vcmpe.f32	s16, s15
 916 00ba F1EE10FA 		vmrs	APSR_nzcv, FPSCR
 917              		.loc 1 81 0
 918 00be C4BF     		itt	gt
 919 00c0 DFED4F7A 		vldrgt.32	s15, .L99+24
 920 00c4 38EE678A 		vsubgt.f32	s16, s16, s15
 921              	.LVL67:
 922              		.loc 1 84 0
 923 00c8 B5EEC08A 		vcmpe.f32	s16, #0
 924 00cc F1EE10FA 		vmrs	APSR_nzcv, FPSCR
 925 00d0 2CDB     		blt	.L68
 926              		.loc 1 84 0 is_stmt 0 discriminator 1
 927 00d2 DFED4C7A 		vldr.32	s15, .L99+28
 928 00d6 B4EEE78A 		vcmpe.f32	s16, s15
 929 00da F1EE10FA 		vmrs	APSR_nzcv, FPSCR
 930 00de 25D5     		bpl	.L68
 931              	.LBE109:
 932              		.loc 1 35 0 is_stmt 1
 933 00e0 0024     		movs	r4, #0
 934              	.LVL68:
 935              	.LBB124:
 936              		.loc 1 85 0
 937 00e2 0126     		movs	r6, #1
 938              	.LVL69:
 939              	.L70:
 940              	.LBE124:
 941              		.loc 1 140 0
 942 00e4 BDF80A20 		ldrh	r2, [sp, #10]
 943 00e8 4749     		ldr	r1, .L99+32
 944 00ea 4848     		ldr	r0, .L99+36
 945 00ec FFF7FEFF 		bl	chprintf.constprop.2
 946              	.LVL70:
 947              		.loc 1 142 0
 948 00f0 474B     		ldr	r3, .L99+40
 949 00f2 2021     		movs	r1, #32
 950              		.loc 1 144 0
 951 00f4 002E     		cmp	r6, #0
 952              		.loc 1 143 0
 953 00f6 4FF04002 		mov	r2, #64
 954              		.loc 1 142 0
 955 00fa 9961     		str	r1, [r3, #24]
 956              		.loc 1 144 0
 957 00fc 0CBF     		ite	eq
 958 00fe 4FF48061 		moveq	r1, #1024
 959 0102 4FF08061 		movne	r1, #67108864
 960              		.loc 1 143 0
 961 0106 9A61     		str	r2, [r3, #24]
 962              	.LVL71:
 963              	.L80:
 964              		.loc 1 144 0 discriminator 8
 965 0108 414A     		ldr	r2, .L99+40
 966              		.loc 1 145 0 discriminator 8
 967 010a 002C     		cmp	r4, #0
 968 010c 14BF     		ite	ne
 969 010e 4FF00063 		movne	r3, #134217728
ARM GAS  /var/folders/rv/m1ccwdpx5lz8hgtj5gzs6dn40000gn/T//ccuQl80x.s 			page 18


 970 0112 4FF40063 		moveq	r3, #2048
 971              		.loc 1 144 0 discriminator 8
 972 0116 9161     		str	r1, [r2, #24]
 973              	.LVL72:
 974              	.L79:
 975              		.loc 1 145 0 discriminator 8
 976 0118 3D4A     		ldr	r2, .L99+40
 977 011a 9361     		str	r3, [r2, #24]
 978              		.loc 1 147 0 discriminator 8
 979 011c 039A     		ldr	r2, [sp, #12]
 980 011e 2B68     		ldr	r3, [r5]
 981 0120 9A42     		cmp	r2, r3
 982 0122 56D1     		bne	.L95
 983              		.loc 1 147 0 is_stmt 0
 984 0124 04B0     		add	sp, sp, #16
 985              		.cfi_remember_state
 986              		.cfi_def_cfa_offset 24
 987              		@ sp needed
 988 0126 BDEC028B 		vldm	sp!, {d8}
 989              		.cfi_restore 80
 990              		.cfi_restore 81
 991              		.cfi_def_cfa_offset 16
 992 012a 70BD     		pop	{r4, r5, r6, pc}
 993              	.LVL73:
 994              	.L68:
 995              		.cfi_restore_state
 996              	.LBB125:
 997              		.loc 1 86 0 is_stmt 1
 998 012c DFED357A 		vldr.32	s15, .L99+28
 999 0130 B4EEE78A 		vcmpe.f32	s16, s15
 1000 0134 F1EE10FA 		vmrs	APSR_nzcv, FPSCR
 1001 0138 06DB     		blt	.L71
 1002              		.loc 1 86 0 is_stmt 0 discriminator 1
 1003 013a DFED307A 		vldr.32	s15, .L99+20
 1004 013e B4EEE78A 		vcmpe.f32	s16, s15
 1005 0142 F1EE10FA 		vmrs	APSR_nzcv, FPSCR
 1006 0146 41D4     		bmi	.L83
 1007              	.L71:
 1008              		.loc 1 88 0 is_stmt 1
 1009 0148 DFED327A 		vldr.32	s15, .L99+44
 1010 014c B4EEE78A 		vcmpe.f32	s16, s15
 1011 0150 F1EE10FA 		vmrs	APSR_nzcv, FPSCR
 1012 0154 0DDA     		bge	.L96
 1013              	.L73:
 1014              		.loc 1 90 0
 1015 0156 DFED307A 		vldr.32	s15, .L99+48
 1016 015a B4EEE78A 		vcmpe.f32	s16, s15
 1017 015e F1EE10FA 		vmrs	APSR_nzcv, FPSCR
 1018 0162 1FDA     		bge	.L97
 1019              	.LVL74:
 1020              	.L63:
 1021              	.LBE125:
 1022              		.loc 1 35 0
 1023 0164 0024     		movs	r4, #0
 1024              	.LVL75:
 1025 0166 2646     		mov	r6, r4
 1026 0168 BCE7     		b	.L70
ARM GAS  /var/folders/rv/m1ccwdpx5lz8hgtj5gzs6dn40000gn/T//ccuQl80x.s 			page 19


 1027              	.LVL76:
 1028              	.L94:
 1029              	.LBB126:
 1030              	.LBB123:
 1031              	.LBB122:
 1032              		.loc 6 367 0
 1033 016a 2C48     		ldr	r0, .L99+52
 1034 016c FFF7FEFF 		bl	chSysHalt
 1035              	.LVL77:
 1036 0170 98E7     		b	.L65
 1037              	.L96:
 1038              	.LBE122:
 1039              	.LBE123:
 1040              		.loc 1 88 0 discriminator 1
 1041 0172 DFED297A 		vldr.32	s15, .L99+48
 1042 0176 B4EEE78A 		vcmpe.f32	s16, s15
 1043 017a F1EE10FA 		vmrs	APSR_nzcv, FPSCR
 1044 017e EAD5     		bpl	.L73
 1045              	.LVL78:
 1046              	.LBE126:
 1047              		.loc 1 140 0
 1048 0180 BDF80A20 		ldrh	r2, [sp, #10]
 1049 0184 2049     		ldr	r1, .L99+32
 1050 0186 2148     		ldr	r0, .L99+36
 1051 0188 FFF7FEFF 		bl	chprintf.constprop.2
 1052              	.LVL79:
 1053              		.loc 1 142 0
 1054 018c 204A     		ldr	r2, .L99+40
 1055 018e 4FF40013 		mov	r3, #2097152
 1056              		.loc 1 143 0
 1057 0192 4020     		movs	r0, #64
 1058              		.loc 1 144 0
 1059 0194 4FF48061 		mov	r1, #1024
 1060              		.loc 1 142 0
 1061 0198 9361     		str	r3, [r2, #24]
 1062              		.loc 1 143 0
 1063 019a 9061     		str	r0, [r2, #24]
 1064              		.loc 1 144 0
 1065 019c 4FF40063 		mov	r3, #2048
 1066 01a0 9161     		str	r1, [r2, #24]
 1067 01a2 B9E7     		b	.L79
 1068              	.LVL80:
 1069              	.L97:
 1070              		.loc 1 140 0 discriminator 1
 1071 01a4 BDF80A20 		ldrh	r2, [sp, #10]
 1072 01a8 1749     		ldr	r1, .L99+32
 1073 01aa 1848     		ldr	r0, .L99+36
 1074 01ac FFF7FEFF 		bl	chprintf.constprop.2
 1075              	.LVL81:
 1076              		.loc 1 142 0 discriminator 1
 1077 01b0 174A     		ldr	r2, .L99+40
 1078              		.loc 1 143 0 discriminator 1
 1079 01b2 B5EEC08A 		vcmpe.f32	s16, #0
 1080              		.loc 1 142 0 discriminator 1
 1081 01b6 2023     		movs	r3, #32
 1082              		.loc 1 143 0 discriminator 1
 1083 01b8 F1EE10FA 		vmrs	APSR_nzcv, FPSCR
ARM GAS  /var/folders/rv/m1ccwdpx5lz8hgtj5gzs6dn40000gn/T//ccuQl80x.s 			page 20


 1084              		.loc 1 142 0 discriminator 1
 1085 01bc 9361     		str	r3, [r2, #24]
 1086              		.loc 1 143 0 discriminator 1
 1087 01be 0AD4     		bmi	.L98
 1088              		.loc 1 143 0 is_stmt 0
 1089 01c0 4023     		movs	r3, #64
 1090 01c2 9361     		str	r3, [r2, #24]
 1091              		.loc 1 35 0 is_stmt 1
 1092 01c4 0024     		movs	r4, #0
 1093              	.LVL82:
 1094              		.loc 1 143 0
 1095 01c6 4FF48061 		mov	r1, #1024
 1096 01ca 9DE7     		b	.L80
 1097              	.LVL83:
 1098              	.L83:
 1099              	.LBB127:
 1100              		.loc 1 87 0
 1101 01cc 0124     		movs	r4, #1
 1102              	.LVL84:
 1103              	.LBE127:
 1104              		.loc 1 35 0
 1105 01ce 0026     		movs	r6, #0
 1106 01d0 88E7     		b	.L70
 1107              	.LVL85:
 1108              	.L95:
 1109              		.loc 1 147 0
 1110 01d2 FFF7FEFF 		bl	__stack_chk_fail
 1111              	.LVL86:
 1112              	.L98:
 1113              		.loc 1 143 0
 1114 01d6 4FF48003 		mov	r3, #4194304
 1115              		.loc 1 144 0
 1116 01da 4FF48061 		mov	r1, #1024
 1117              		.loc 1 143 0
 1118 01de 9361     		str	r3, [r2, #24]
 1119              		.loc 1 144 0
 1120 01e0 4FF40063 		mov	r3, #2048
 1121 01e4 9161     		str	r1, [r2, #24]
 1122 01e6 97E7     		b	.L79
 1123              	.L100:
 1124              		.align	2
 1125              	.L99:
 1126 01e8 00000000 		.word	__stack_chk_guard
 1127 01ec CDCC4C3E 		.word	1045220557
 1128 01f0 00000000 		.word	GPTD11
 1129 01f4 00000000 		.word	ch
 1130 01f8 DB0F493F 		.word	1061752795
 1131 01fc DB0F4940 		.word	1078530011
 1132 0200 DB0FC940 		.word	1086918619
 1133 0204 DB0FC93F 		.word	1070141403
 1134 0208 00000000 		.word	.LC0
 1135 020c 00000000 		.word	SD3
 1136 0210 000C0240 		.word	1073875968
 1137 0214 DB0F49C0 		.word	3226013659
 1138 0218 DB0FC9BF 		.word	3217625051
 1139 021c 00000000 		.word	.LANCHOR11
 1140              		.cfi_endproc
ARM GAS  /var/folders/rv/m1ccwdpx5lz8hgtj5gzs6dn40000gn/T//ccuQl80x.s 			page 21


 1141              	.LFE257:
 1142              		.size	show_gravity, .-show_gravity
 1143              		.section	.text.imu_start,"ax",%progbits
 1144              		.align	1
 1145              		.p2align 4,,15
 1146              		.global	imu_start
 1147              		.syntax unified
 1148              		.thumb
 1149              		.thumb_func
 1150              		.fpu fpv4-sp-d16
 1151              		.type	imu_start, %function
 1152              	imu_start:
 1153              	.LFB259:
 1154              		.loc 1 255 0
 1155              		.cfi_startproc
 1156              		@ args = 0, pretend = 0, frame = 8
 1157              		@ frame_needed = 0, uses_anonymous_args = 0
 1158 0000 30B5     		push	{r4, r5, lr}
 1159              		.cfi_def_cfa_offset 12
 1160              		.cfi_offset 4, -12
 1161              		.cfi_offset 5, -8
 1162              		.cfi_offset 14, -4
 1163              		.loc 1 258 0
 1164 0002 124D     		ldr	r5, .L108
 1165              		.loc 1 255 0
 1166 0004 124C     		ldr	r4, .L108+4
 1167              		.loc 1 258 0
 1168 0006 2B78     		ldrb	r3, [r5]	@ zero_extendqisi2
 1169              		.loc 1 255 0
 1170 0008 2268     		ldr	r2, [r4]
 1171 000a 85B0     		sub	sp, sp, #20
 1172              		.cfi_def_cfa_offset 32
 1173              		.loc 1 255 0
 1174 000c 0392     		str	r2, [sp, #12]
 1175              	.LVL87:
 1176              		.loc 1 258 0
 1177 000e 2BB1     		cbz	r3, .L106
 1178              	.LVL88:
 1179              	.L101:
 1180              		.loc 1 280 0
 1181 0010 039A     		ldr	r2, [sp, #12]
 1182 0012 2368     		ldr	r3, [r4]
 1183 0014 9A42     		cmp	r2, r3
 1184 0016 16D1     		bne	.L107
 1185 0018 05B0     		add	sp, sp, #20
 1186              		.cfi_remember_state
 1187              		.cfi_def_cfa_offset 12
 1188              		@ sp needed
 1189 001a 30BD     		pop	{r4, r5, pc}
 1190              	.LVL89:
 1191              	.L106:
 1192              		.cfi_restore_state
 1193              		.loc 1 262 0
 1194 001c FFF7FEFF 		bl	i2c_start
 1195              	.LVL90:
 1196              		.loc 1 264 0
 1197 0020 4FF4C840 		mov	r0, #25600
ARM GAS  /var/folders/rv/m1ccwdpx5lz8hgtj5gzs6dn40000gn/T//ccuQl80x.s 			page 22


 1198 0024 FFF7FEFF 		bl	mpu9250_setup
 1199              	.LVL91:
 1200              		.loc 1 275 0
 1201 0028 08B9     		cbnz	r0, .L103
 1202              		.loc 1 276 0
 1203 002a 0123     		movs	r3, #1
 1204 002c 2B70     		strb	r3, [r5]
 1205              	.L103:
 1206              		.loc 1 279 0
 1207 002e 0023     		movs	r3, #0
 1208 0030 0093     		str	r3, [sp]
 1209 0032 0848     		ldr	r0, .L108+8
 1210              	.LVL92:
 1211 0034 084B     		ldr	r3, .L108+12
 1212 0036 4022     		movs	r2, #64
 1213 0038 4FF45E71 		mov	r1, #888
 1214 003c FFF7FEFF 		bl	chThdCreateStatic
 1215              	.LVL93:
 1216 0040 064B     		ldr	r3, .L108+16
 1217 0042 1860     		str	r0, [r3]
 1218 0044 E4E7     		b	.L101
 1219              	.L107:
 1220              		.loc 1 280 0
 1221 0046 FFF7FEFF 		bl	__stack_chk_fail
 1222              	.LVL94:
 1223              	.L109:
 1224 004a 00BF     		.align	2
 1225              	.L108:
 1226 004c 00000000 		.word	.LANCHOR0
 1227 0050 00000000 		.word	__stack_chk_guard
 1228 0054 00000000 		.word	.LANCHOR14
 1229 0058 00000000 		.word	imu_reader_thd
 1230 005c 00000000 		.word	.LANCHOR15
 1231              		.cfi_endproc
 1232              	.LFE259:
 1233              		.size	imu_start, .-imu_start
 1234              		.section	.text.imu_stop,"ax",%progbits
 1235              		.align	1
 1236              		.p2align 4,,15
 1237              		.global	imu_stop
 1238              		.syntax unified
 1239              		.thumb
 1240              		.thumb_func
 1241              		.fpu fpv4-sp-d16
 1242              		.type	imu_stop, %function
 1243              	imu_stop:
 1244              	.LFB260:
 1245              		.loc 1 282 0
 1246              		.cfi_startproc
 1247              		@ args = 0, pretend = 0, frame = 8
 1248              		@ frame_needed = 0, uses_anonymous_args = 0
 1249 0000 30B5     		push	{r4, r5, lr}
 1250              		.cfi_def_cfa_offset 12
 1251              		.cfi_offset 4, -12
 1252              		.cfi_offset 5, -8
 1253              		.cfi_offset 14, -4
 1254              		.loc 1 283 0
ARM GAS  /var/folders/rv/m1ccwdpx5lz8hgtj5gzs6dn40000gn/T//ccuQl80x.s 			page 23


 1255 0002 0B4C     		ldr	r4, .L114
 1256              		.loc 1 282 0
 1257 0004 0B4D     		ldr	r5, .L114+4
 1258              		.loc 1 283 0
 1259 0006 2068     		ldr	r0, [r4]
 1260              		.loc 1 282 0
 1261 0008 2B68     		ldr	r3, [r5]
 1262 000a 83B0     		sub	sp, sp, #12
 1263              		.cfi_def_cfa_offset 24
 1264              		.loc 1 282 0
 1265 000c 0193     		str	r3, [sp, #4]
 1266              		.loc 1 283 0
 1267 000e FFF7FEFF 		bl	chThdTerminate
 1268              	.LVL95:
 1269              		.loc 1 284 0
 1270 0012 2068     		ldr	r0, [r4]
 1271 0014 FFF7FEFF 		bl	chThdWait
 1272              	.LVL96:
 1273              		.loc 1 287 0
 1274 0018 0199     		ldr	r1, [sp, #4]
 1275 001a 2A68     		ldr	r2, [r5]
 1276              		.loc 1 286 0
 1277 001c 0648     		ldr	r0, .L114+8
 1278              		.loc 1 285 0
 1279 001e 0023     		movs	r3, #0
 1280              		.loc 1 287 0
 1281 0020 9142     		cmp	r1, r2
 1282              		.loc 1 285 0
 1283 0022 2360     		str	r3, [r4]
 1284              		.loc 1 286 0
 1285 0024 0370     		strb	r3, [r0]
 1286              		.loc 1 287 0
 1287 0026 01D1     		bne	.L113
 1288 0028 03B0     		add	sp, sp, #12
 1289              		.cfi_remember_state
 1290              		.cfi_def_cfa_offset 12
 1291              		@ sp needed
 1292 002a 30BD     		pop	{r4, r5, pc}
 1293              	.L113:
 1294              		.cfi_restore_state
 1295 002c FFF7FEFF 		bl	__stack_chk_fail
 1296              	.LVL97:
 1297              	.L115:
 1298              		.align	2
 1299              	.L114:
 1300 0030 00000000 		.word	.LANCHOR15
 1301 0034 00000000 		.word	__stack_chk_guard
 1302 0038 00000000 		.word	.LANCHOR0
 1303              		.cfi_endproc
 1304              	.LFE260:
 1305              		.size	imu_stop, .-imu_stop
 1306              		.section	.text.get_acc,"ax",%progbits
 1307              		.align	1
 1308              		.p2align 4,,15
 1309              		.global	get_acc
 1310              		.syntax unified
 1311              		.thumb
ARM GAS  /var/folders/rv/m1ccwdpx5lz8hgtj5gzs6dn40000gn/T//ccuQl80x.s 			page 24


 1312              		.thumb_func
 1313              		.fpu fpv4-sp-d16
 1314              		.type	get_acc, %function
 1315              	get_acc:
 1316              	.LFB261:
 1317              		.loc 1 290 0
 1318              		.cfi_startproc
 1319              		@ args = 0, pretend = 0, frame = 8
 1320              		@ frame_needed = 0, uses_anonymous_args = 0
 1321              	.LVL98:
 1322 0000 00B5     		push	{lr}
 1323              		.cfi_def_cfa_offset 4
 1324              		.cfi_offset 14, -4
 1325 0002 0A4B     		ldr	r3, .L122
 1326 0004 83B0     		sub	sp, sp, #12
 1327              		.cfi_def_cfa_offset 16
 1328              		.loc 1 290 0
 1329 0006 1A68     		ldr	r2, [r3]
 1330 0008 0192     		str	r2, [sp, #4]
 1331              		.loc 1 291 0
 1332 000a 0228     		cmp	r0, #2
 1333              		.loc 1 292 0
 1334 000c 9BBF     		ittet	ls
 1335 000e 084A     		ldrls	r2, .L122+4
 1336 0010 1430     		addls	r0, r0, #20
 1337              	.LVL99:
 1338              		.loc 1 294 0
 1339 0012 0020     		movhi	r0, #0
 1340              		.loc 1 292 0
 1341 0014 32F91000 		ldrshls	r0, [r2, r0, lsl #1]
 1342              		.loc 1 295 0
 1343 0018 019A     		ldr	r2, [sp, #4]
 1344 001a 1B68     		ldr	r3, [r3]
 1345 001c 9A42     		cmp	r2, r3
 1346 001e 02D1     		bne	.L121
 1347 0020 03B0     		add	sp, sp, #12
 1348              		.cfi_remember_state
 1349              		.cfi_def_cfa_offset 4
 1350              		@ sp needed
 1351 0022 5DF804FB 		ldr	pc, [sp], #4
 1352              	.L121:
 1353              		.cfi_restore_state
 1354 0026 FFF7FEFF 		bl	__stack_chk_fail
 1355              	.LVL100:
 1356              	.L123:
 1357 002a 00BF     		.align	2
 1358              	.L122:
 1359 002c 00000000 		.word	__stack_chk_guard
 1360 0030 00000000 		.word	.LANCHOR5
 1361              		.cfi_endproc
 1362              	.LFE261:
 1363              		.size	get_acc, .-get_acc
 1364              		.section	.text.get_acc_all,"ax",%progbits
 1365              		.align	1
 1366              		.p2align 4,,15
 1367              		.global	get_acc_all
 1368              		.syntax unified
ARM GAS  /var/folders/rv/m1ccwdpx5lz8hgtj5gzs6dn40000gn/T//ccuQl80x.s 			page 25


 1369              		.thumb
 1370              		.thumb_func
 1371              		.fpu fpv4-sp-d16
 1372              		.type	get_acc_all, %function
 1373              	get_acc_all:
 1374              	.LFB262:
 1375              		.loc 1 297 0
 1376              		.cfi_startproc
 1377              		@ args = 0, pretend = 0, frame = 8
 1378              		@ frame_needed = 0, uses_anonymous_args = 0
 1379              	.LVL101:
 1380 0000 10B5     		push	{r4, lr}
 1381              		.cfi_def_cfa_offset 8
 1382              		.cfi_offset 4, -8
 1383              		.cfi_offset 14, -4
 1384              		.loc 1 298 0
 1385 0002 0B4B     		ldr	r3, .L128
 1386              		.loc 1 297 0
 1387 0004 0B4A     		ldr	r2, .L128+4
 1388              		.loc 1 298 0
 1389 0006 B3F92840 		ldrsh	r4, [r3, #40]
 1390              		.loc 1 297 0
 1391 000a 1168     		ldr	r1, [r2]
 1392              		.loc 1 298 0
 1393 000c 0480     		strh	r4, [r0]	@ movhi
 1394              		.loc 1 297 0
 1395 000e 82B0     		sub	sp, sp, #8
 1396              		.cfi_def_cfa_offset 16
 1397              		.loc 1 299 0
 1398 0010 B3F92A40 		ldrsh	r4, [r3, #42]
 1399              		.loc 1 297 0
 1400 0014 0191     		str	r1, [sp, #4]
 1401              		.loc 1 299 0
 1402 0016 4480     		strh	r4, [r0, #2]	@ movhi
 1403              		.loc 1 301 0
 1404 0018 0199     		ldr	r1, [sp, #4]
 1405 001a 1268     		ldr	r2, [r2]
 1406              		.loc 1 300 0
 1407 001c B3F92C30 		ldrsh	r3, [r3, #44]
 1408 0020 8380     		strh	r3, [r0, #4]	@ movhi
 1409              		.loc 1 301 0
 1410 0022 9142     		cmp	r1, r2
 1411 0024 01D1     		bne	.L127
 1412 0026 02B0     		add	sp, sp, #8
 1413              		.cfi_remember_state
 1414              		.cfi_def_cfa_offset 8
 1415              		@ sp needed
 1416 0028 10BD     		pop	{r4, pc}
 1417              	.L127:
 1418              		.cfi_restore_state
 1419 002a FFF7FEFF 		bl	__stack_chk_fail
 1420              	.LVL102:
 1421              	.L129:
 1422 002e 00BF     		.align	2
 1423              	.L128:
 1424 0030 00000000 		.word	.LANCHOR5
 1425 0034 00000000 		.word	__stack_chk_guard
ARM GAS  /var/folders/rv/m1ccwdpx5lz8hgtj5gzs6dn40000gn/T//ccuQl80x.s 			page 26


 1426              		.cfi_endproc
 1427              	.LFE262:
 1428              		.size	get_acc_all, .-get_acc_all
 1429              		.section	.text.get_acc_filtered,"ax",%progbits
 1430              		.align	1
 1431              		.p2align 4,,15
 1432              		.global	get_acc_filtered
 1433              		.syntax unified
 1434              		.thumb
 1435              		.thumb_func
 1436              		.fpu fpv4-sp-d16
 1437              		.type	get_acc_filtered, %function
 1438              	get_acc_filtered:
 1439              	.LFB263:
 1440              		.loc 1 304 0
 1441              		.cfi_startproc
 1442              		@ args = 0, pretend = 0, frame = 8
 1443              		@ frame_needed = 0, uses_anonymous_args = 0
 1444              	.LVL103:
 1445 0000 00B5     		push	{lr}
 1446              		.cfi_def_cfa_offset 4
 1447              		.cfi_offset 14, -4
 1448 0002 0C4B     		ldr	r3, .L136
 1449 0004 83B0     		sub	sp, sp, #12
 1450              		.cfi_def_cfa_offset 16
 1451              		.loc 1 304 0
 1452 0006 1A68     		ldr	r2, [r3]
 1453 0008 0192     		str	r2, [sp, #4]
 1454              		.loc 1 305 0
 1455 000a 0228     		cmp	r0, #2
 1456 000c 019A     		ldr	r2, [sp, #4]
 1457 000e 1B68     		ldr	r3, [r3]
 1458 0010 06D8     		bhi	.L131
 1459 0012 9A42     		cmp	r2, r3
 1460 0014 0BD1     		bne	.L135
 1461              		.loc 1 318 0
 1462 0016 03B0     		add	sp, sp, #12
 1463              		.cfi_remember_state
 1464              		.cfi_def_cfa_offset 4
 1465              		@ sp needed
 1466 0018 5DF804EB 		ldr	lr, [sp], #4
 1467              		.cfi_restore 14
 1468              		.cfi_def_cfa_offset 0
 1469 001c FFF7FEBF 		b	get_acc_filtered.part.0
 1470              	.LVL104:
 1471              	.L131:
 1472              		.cfi_restore_state
 1473 0020 9A42     		cmp	r2, r3
 1474 0022 4FF00000 		mov	r0, #0
 1475              	.LVL105:
 1476 0026 02D1     		bne	.L135
 1477 0028 03B0     		add	sp, sp, #12
 1478              		.cfi_remember_state
 1479              		.cfi_def_cfa_offset 4
 1480              		@ sp needed
 1481 002a 5DF804FB 		ldr	pc, [sp], #4
 1482              	.L135:
ARM GAS  /var/folders/rv/m1ccwdpx5lz8hgtj5gzs6dn40000gn/T//ccuQl80x.s 			page 27


 1483              		.cfi_restore_state
 1484 002e FFF7FEFF 		bl	__stack_chk_fail
 1485              	.LVL106:
 1486              	.L137:
 1487 0032 00BF     		.align	2
 1488              	.L136:
 1489 0034 00000000 		.word	__stack_chk_guard
 1490              		.cfi_endproc
 1491              	.LFE263:
 1492              		.size	get_acc_filtered, .-get_acc_filtered
 1493              		.section	.text.calibrate_acc,"ax",%progbits
 1494              		.align	1
 1495              		.p2align 4,,15
 1496              		.global	calibrate_acc
 1497              		.syntax unified
 1498              		.thumb
 1499              		.thumb_func
 1500              		.fpu fpv4-sp-d16
 1501              		.type	calibrate_acc, %function
 1502              	calibrate_acc:
 1503              	.LFB264:
 1504              		.loc 1 321 0
 1505              		.cfi_startproc
 1506              		@ args = 0, pretend = 0, frame = 8
 1507              		@ frame_needed = 0, uses_anonymous_args = 0
 1508 0000 70B5     		push	{r4, r5, r6, lr}
 1509              		.cfi_def_cfa_offset 16
 1510              		.cfi_offset 4, -16
 1511              		.cfi_offset 5, -12
 1512              		.cfi_offset 6, -8
 1513              		.cfi_offset 14, -4
 1514              		.loc 1 322 0
 1515 0002 114B     		ldr	r3, .L146
 1516              		.loc 1 321 0
 1517 0004 114C     		ldr	r4, .L146+4
 1518              		.loc 1 322 0
 1519 0006 1B78     		ldrb	r3, [r3]	@ zero_extendqisi2
 1520              		.loc 1 321 0
 1521 0008 2268     		ldr	r2, [r4]
 1522 000a 82B0     		sub	sp, sp, #8
 1523              		.cfi_def_cfa_offset 24
 1524              		.loc 1 321 0
 1525 000c 0192     		str	r2, [sp, #4]
 1526              		.loc 1 322 0
 1527 000e 93B1     		cbz	r3, .L138
 1528              		.loc 1 323 0
 1529 0010 0F4D     		ldr	r5, .L146+8
 1530 0012 0126     		movs	r6, #1
 1531              	.LBB128:
 1532              	.LBB129:
 1533 0014 3221     		movs	r1, #50
 1534 0016 0020     		movs	r0, #0
 1535              	.LBE129:
 1536              	.LBE128:
 1537 0018 2E70     		strb	r6, [r5]
 1538              	.LVL107:
 1539              	.LBB131:
ARM GAS  /var/folders/rv/m1ccwdpx5lz8hgtj5gzs6dn40000gn/T//ccuQl80x.s 			page 28


 1540              	.LBB130:
 1541 001a FFF7FEFF 		bl	get_acc_filtered.part.0
 1542              	.LVL108:
 1543              	.LBE130:
 1544              	.LBE131:
 1545              	.LBB132:
 1546              	.LBB133:
 1547 001e 3221     		movs	r1, #50
 1548 0020 3046     		mov	r0, r6
 1549              	.LBE133:
 1550              	.LBE132:
 1551              		.loc 1 325 0
 1552 0022 2E70     		strb	r6, [r5]
 1553              	.LVL109:
 1554              	.LBB135:
 1555              	.LBB134:
 1556 0024 FFF7FEFF 		bl	get_acc_filtered.part.0
 1557              	.LVL110:
 1558              	.LBE134:
 1559              	.LBE135:
 1560              	.LBB136:
 1561              	.LBB137:
 1562 0028 3221     		movs	r1, #50
 1563 002a 0220     		movs	r0, #2
 1564              	.LBE137:
 1565              	.LBE136:
 1566              		.loc 1 327 0
 1567 002c 2E70     		strb	r6, [r5]
 1568              	.LVL111:
 1569              	.LBB139:
 1570              	.LBB138:
 1571 002e FFF7FEFF 		bl	get_acc_filtered.part.0
 1572              	.LVL112:
 1573              	.LBE138:
 1574              	.LBE139:
 1575              		.loc 1 329 0
 1576 0032 0023     		movs	r3, #0
 1577 0034 2B70     		strb	r3, [r5]
 1578              	.L138:
 1579              		.loc 1 331 0
 1580 0036 019A     		ldr	r2, [sp, #4]
 1581 0038 2368     		ldr	r3, [r4]
 1582 003a 9A42     		cmp	r2, r3
 1583 003c 01D1     		bne	.L145
 1584 003e 02B0     		add	sp, sp, #8
 1585              		.cfi_remember_state
 1586              		.cfi_def_cfa_offset 16
 1587              		@ sp needed
 1588 0040 70BD     		pop	{r4, r5, r6, pc}
 1589              	.L145:
 1590              		.cfi_restore_state
 1591 0042 FFF7FEFF 		bl	__stack_chk_fail
 1592              	.LVL113:
 1593              	.L147:
 1594 0046 00BF     		.align	2
 1595              	.L146:
 1596 0048 00000000 		.word	.LANCHOR0
ARM GAS  /var/folders/rv/m1ccwdpx5lz8hgtj5gzs6dn40000gn/T//ccuQl80x.s 			page 29


 1597 004c 00000000 		.word	__stack_chk_guard
 1598 0050 00000000 		.word	.LANCHOR12
 1599              		.cfi_endproc
 1600              	.LFE264:
 1601              		.size	calibrate_acc, .-calibrate_acc
 1602              		.section	.text.get_acc_offset,"ax",%progbits
 1603              		.align	1
 1604              		.p2align 4,,15
 1605              		.global	get_acc_offset
 1606              		.syntax unified
 1607              		.thumb
 1608              		.thumb_func
 1609              		.fpu fpv4-sp-d16
 1610              		.type	get_acc_offset, %function
 1611              	get_acc_offset:
 1612              	.LFB265:
 1613              		.loc 1 334 0
 1614              		.cfi_startproc
 1615              		@ args = 0, pretend = 0, frame = 8
 1616              		@ frame_needed = 0, uses_anonymous_args = 0
 1617              	.LVL114:
 1618 0000 00B5     		push	{lr}
 1619              		.cfi_def_cfa_offset 4
 1620              		.cfi_offset 14, -4
 1621 0002 0B4B     		ldr	r3, .L154
 1622 0004 83B0     		sub	sp, sp, #12
 1623              		.cfi_def_cfa_offset 16
 1624              		.loc 1 334 0
 1625 0006 1A68     		ldr	r2, [r3]
 1626 0008 0192     		str	r2, [sp, #4]
 1627              		.loc 1 335 0
 1628 000a 0228     		cmp	r0, #2
 1629              		.loc 1 336 0
 1630 000c 9CBF     		itt	ls
 1631 000e 094A     		ldrls	r2, .L154+4
 1632 0010 02EB4000 		addls	r0, r2, r0, lsl #1
 1633              	.LVL115:
 1634              		.loc 1 339 0
 1635 0014 019A     		ldr	r2, [sp, #4]
 1636 0016 1B68     		ldr	r3, [r3]
 1637              		.loc 1 336 0
 1638 0018 94BF     		ite	ls
 1639 001a B0F93400 		ldrshls	r0, [r0, #52]
 1640              		.loc 1 338 0
 1641 001e 0020     		movhi	r0, #0
 1642              		.loc 1 339 0
 1643 0020 9A42     		cmp	r2, r3
 1644 0022 02D1     		bne	.L153
 1645 0024 03B0     		add	sp, sp, #12
 1646              		.cfi_remember_state
 1647              		.cfi_def_cfa_offset 4
 1648              		@ sp needed
 1649 0026 5DF804FB 		ldr	pc, [sp], #4
 1650              	.L153:
 1651              		.cfi_restore_state
 1652 002a FFF7FEFF 		bl	__stack_chk_fail
 1653              	.LVL116:
ARM GAS  /var/folders/rv/m1ccwdpx5lz8hgtj5gzs6dn40000gn/T//ccuQl80x.s 			page 30


 1654              	.L155:
 1655 002e 00BF     		.align	2
 1656              	.L154:
 1657 0030 00000000 		.word	__stack_chk_guard
 1658 0034 00000000 		.word	.LANCHOR5
 1659              		.cfi_endproc
 1660              	.LFE265:
 1661              		.size	get_acc_offset, .-get_acc_offset
 1662              		.section	.text.get_acceleration,"ax",%progbits
 1663              		.align	1
 1664              		.p2align 4,,15
 1665              		.global	get_acceleration
 1666              		.syntax unified
 1667              		.thumb
 1668              		.thumb_func
 1669              		.fpu fpv4-sp-d16
 1670              		.type	get_acceleration, %function
 1671              	get_acceleration:
 1672              	.LFB266:
 1673              		.loc 1 341 0
 1674              		.cfi_startproc
 1675              		@ args = 0, pretend = 0, frame = 8
 1676              		@ frame_needed = 0, uses_anonymous_args = 0
 1677              	.LVL117:
 1678 0000 00B5     		push	{lr}
 1679              		.cfi_def_cfa_offset 4
 1680              		.cfi_offset 14, -4
 1681 0002 0B4B     		ldr	r3, .L162
 1682 0004 83B0     		sub	sp, sp, #12
 1683              		.cfi_def_cfa_offset 16
 1684              		.loc 1 341 0
 1685 0006 1A68     		ldr	r2, [r3]
 1686 0008 0192     		str	r2, [sp, #4]
 1687              		.loc 1 342 0
 1688 000a 0228     		cmp	r0, #2
 1689              		.loc 1 343 0
 1690 000c 96BF     		itet	ls
 1691 000e 094A     		ldrls	r2, .L162+4
 1692              		.loc 1 345 0
 1693 0010 9FED090A 		vldrhi.32	s0, .L162+8
 1694              		.loc 1 343 0
 1695 0014 02EB8000 		addls	r0, r2, r0, lsl #2
 1696              	.LVL118:
 1697              		.loc 1 346 0
 1698 0018 019A     		ldr	r2, [sp, #4]
 1699 001a 1B68     		ldr	r3, [r3]
 1700              		.loc 1 343 0
 1701 001c 98BF     		it	ls
 1702 001e 90ED000A 		vldrls.32	s0, [r0]
 1703              		.loc 1 346 0
 1704 0022 9A42     		cmp	r2, r3
 1705 0024 02D1     		bne	.L161
 1706 0026 03B0     		add	sp, sp, #12
 1707              		.cfi_remember_state
 1708              		.cfi_def_cfa_offset 4
 1709              		@ sp needed
 1710 0028 5DF804FB 		ldr	pc, [sp], #4
ARM GAS  /var/folders/rv/m1ccwdpx5lz8hgtj5gzs6dn40000gn/T//ccuQl80x.s 			page 31


 1711              	.L161:
 1712              		.cfi_restore_state
 1713 002c FFF7FEFF 		bl	__stack_chk_fail
 1714              	.LVL119:
 1715              	.L163:
 1716              		.align	2
 1717              	.L162:
 1718 0030 00000000 		.word	__stack_chk_guard
 1719 0034 00000000 		.word	.LANCHOR5
 1720 0038 00000000 		.word	0
 1721              		.cfi_endproc
 1722              	.LFE266:
 1723              		.size	get_acceleration, .-get_acceleration
 1724              		.section	.text.get_gyro,"ax",%progbits
 1725              		.align	1
 1726              		.p2align 4,,15
 1727              		.global	get_gyro
 1728              		.syntax unified
 1729              		.thumb
 1730              		.thumb_func
 1731              		.fpu fpv4-sp-d16
 1732              		.type	get_gyro, %function
 1733              	get_gyro:
 1734              	.LFB267:
 1735              		.loc 1 348 0
 1736              		.cfi_startproc
 1737              		@ args = 0, pretend = 0, frame = 8
 1738              		@ frame_needed = 0, uses_anonymous_args = 0
 1739              	.LVL120:
 1740 0000 00B5     		push	{lr}
 1741              		.cfi_def_cfa_offset 4
 1742              		.cfi_offset 14, -4
 1743 0002 0B4B     		ldr	r3, .L170
 1744 0004 83B0     		sub	sp, sp, #12
 1745              		.cfi_def_cfa_offset 16
 1746              		.loc 1 348 0
 1747 0006 1A68     		ldr	r2, [r3]
 1748 0008 0192     		str	r2, [sp, #4]
 1749              		.loc 1 349 0
 1750 000a 0228     		cmp	r0, #2
 1751              		.loc 1 350 0
 1752 000c 9CBF     		itt	ls
 1753 000e 094A     		ldrls	r2, .L170+4
 1754 0010 02EB4000 		addls	r0, r2, r0, lsl #1
 1755              	.LVL121:
 1756              		.loc 1 353 0
 1757 0014 019A     		ldr	r2, [sp, #4]
 1758 0016 1B68     		ldr	r3, [r3]
 1759              		.loc 1 350 0
 1760 0018 94BF     		ite	ls
 1761 001a B0F92E00 		ldrshls	r0, [r0, #46]
 1762              		.loc 1 352 0
 1763 001e 0020     		movhi	r0, #0
 1764              		.loc 1 353 0
 1765 0020 9A42     		cmp	r2, r3
 1766 0022 02D1     		bne	.L169
 1767 0024 03B0     		add	sp, sp, #12
ARM GAS  /var/folders/rv/m1ccwdpx5lz8hgtj5gzs6dn40000gn/T//ccuQl80x.s 			page 32


 1768              		.cfi_remember_state
 1769              		.cfi_def_cfa_offset 4
 1770              		@ sp needed
 1771 0026 5DF804FB 		ldr	pc, [sp], #4
 1772              	.L169:
 1773              		.cfi_restore_state
 1774 002a FFF7FEFF 		bl	__stack_chk_fail
 1775              	.LVL122:
 1776              	.L171:
 1777 002e 00BF     		.align	2
 1778              	.L170:
 1779 0030 00000000 		.word	__stack_chk_guard
 1780 0034 00000000 		.word	.LANCHOR5
 1781              		.cfi_endproc
 1782              	.LFE267:
 1783              		.size	get_gyro, .-get_gyro
 1784              		.section	.text.get_gyro_all,"ax",%progbits
 1785              		.align	1
 1786              		.p2align 4,,15
 1787              		.global	get_gyro_all
 1788              		.syntax unified
 1789              		.thumb
 1790              		.thumb_func
 1791              		.fpu fpv4-sp-d16
 1792              		.type	get_gyro_all, %function
 1793              	get_gyro_all:
 1794              	.LFB268:
 1795              		.loc 1 355 0
 1796              		.cfi_startproc
 1797              		@ args = 0, pretend = 0, frame = 8
 1798              		@ frame_needed = 0, uses_anonymous_args = 0
 1799              	.LVL123:
 1800 0000 10B5     		push	{r4, lr}
 1801              		.cfi_def_cfa_offset 8
 1802              		.cfi_offset 4, -8
 1803              		.cfi_offset 14, -4
 1804              		.loc 1 356 0
 1805 0002 0B4B     		ldr	r3, .L176
 1806              		.loc 1 355 0
 1807 0004 0B4A     		ldr	r2, .L176+4
 1808              		.loc 1 356 0
 1809 0006 B3F92E40 		ldrsh	r4, [r3, #46]
 1810              		.loc 1 355 0
 1811 000a 1168     		ldr	r1, [r2]
 1812              		.loc 1 356 0
 1813 000c 0480     		strh	r4, [r0]	@ movhi
 1814              		.loc 1 355 0
 1815 000e 82B0     		sub	sp, sp, #8
 1816              		.cfi_def_cfa_offset 16
 1817              		.loc 1 357 0
 1818 0010 B3F93040 		ldrsh	r4, [r3, #48]
 1819              		.loc 1 355 0
 1820 0014 0191     		str	r1, [sp, #4]
 1821              		.loc 1 357 0
 1822 0016 4480     		strh	r4, [r0, #2]	@ movhi
 1823              		.loc 1 359 0
 1824 0018 0199     		ldr	r1, [sp, #4]
ARM GAS  /var/folders/rv/m1ccwdpx5lz8hgtj5gzs6dn40000gn/T//ccuQl80x.s 			page 33


 1825 001a 1268     		ldr	r2, [r2]
 1826              		.loc 1 358 0
 1827 001c B3F93230 		ldrsh	r3, [r3, #50]
 1828 0020 8380     		strh	r3, [r0, #4]	@ movhi
 1829              		.loc 1 359 0
 1830 0022 9142     		cmp	r1, r2
 1831 0024 01D1     		bne	.L175
 1832 0026 02B0     		add	sp, sp, #8
 1833              		.cfi_remember_state
 1834              		.cfi_def_cfa_offset 8
 1835              		@ sp needed
 1836 0028 10BD     		pop	{r4, pc}
 1837              	.L175:
 1838              		.cfi_restore_state
 1839 002a FFF7FEFF 		bl	__stack_chk_fail
 1840              	.LVL124:
 1841              	.L177:
 1842 002e 00BF     		.align	2
 1843              	.L176:
 1844 0030 00000000 		.word	.LANCHOR5
 1845 0034 00000000 		.word	__stack_chk_guard
 1846              		.cfi_endproc
 1847              	.LFE268:
 1848              		.size	get_gyro_all, .-get_gyro_all
 1849              		.section	.text.get_gyro_filtered,"ax",%progbits
 1850              		.align	1
 1851              		.p2align 4,,15
 1852              		.global	get_gyro_filtered
 1853              		.syntax unified
 1854              		.thumb
 1855              		.thumb_func
 1856              		.fpu fpv4-sp-d16
 1857              		.type	get_gyro_filtered, %function
 1858              	get_gyro_filtered:
 1859              	.LFB269:
 1860              		.loc 1 361 0
 1861              		.cfi_startproc
 1862              		@ args = 0, pretend = 0, frame = 8
 1863              		@ frame_needed = 0, uses_anonymous_args = 0
 1864              	.LVL125:
 1865 0000 00B5     		push	{lr}
 1866              		.cfi_def_cfa_offset 4
 1867              		.cfi_offset 14, -4
 1868 0002 0C4B     		ldr	r3, .L184
 1869 0004 83B0     		sub	sp, sp, #12
 1870              		.cfi_def_cfa_offset 16
 1871              		.loc 1 361 0
 1872 0006 1A68     		ldr	r2, [r3]
 1873 0008 0192     		str	r2, [sp, #4]
 1874              		.loc 1 362 0
 1875 000a 0228     		cmp	r0, #2
 1876 000c 019A     		ldr	r2, [sp, #4]
 1877 000e 1B68     		ldr	r3, [r3]
 1878 0010 06D8     		bhi	.L179
 1879 0012 9A42     		cmp	r2, r3
 1880 0014 0BD1     		bne	.L183
 1881              		.loc 1 375 0
ARM GAS  /var/folders/rv/m1ccwdpx5lz8hgtj5gzs6dn40000gn/T//ccuQl80x.s 			page 34


 1882 0016 03B0     		add	sp, sp, #12
 1883              		.cfi_remember_state
 1884              		.cfi_def_cfa_offset 4
 1885              		@ sp needed
 1886 0018 5DF804EB 		ldr	lr, [sp], #4
 1887              		.cfi_restore 14
 1888              		.cfi_def_cfa_offset 0
 1889 001c FFF7FEBF 		b	get_gyro_filtered.part.1
 1890              	.LVL126:
 1891              	.L179:
 1892              		.cfi_restore_state
 1893 0020 9A42     		cmp	r2, r3
 1894 0022 4FF00000 		mov	r0, #0
 1895              	.LVL127:
 1896 0026 02D1     		bne	.L183
 1897 0028 03B0     		add	sp, sp, #12
 1898              		.cfi_remember_state
 1899              		.cfi_def_cfa_offset 4
 1900              		@ sp needed
 1901 002a 5DF804FB 		ldr	pc, [sp], #4
 1902              	.L183:
 1903              		.cfi_restore_state
 1904 002e FFF7FEFF 		bl	__stack_chk_fail
 1905              	.LVL128:
 1906              	.L185:
 1907 0032 00BF     		.align	2
 1908              	.L184:
 1909 0034 00000000 		.word	__stack_chk_guard
 1910              		.cfi_endproc
 1911              	.LFE269:
 1912              		.size	get_gyro_filtered, .-get_gyro_filtered
 1913              		.section	.text.get_gyro_offset,"ax",%progbits
 1914              		.align	1
 1915              		.p2align 4,,15
 1916              		.global	get_gyro_offset
 1917              		.syntax unified
 1918              		.thumb
 1919              		.thumb_func
 1920              		.fpu fpv4-sp-d16
 1921              		.type	get_gyro_offset, %function
 1922              	get_gyro_offset:
 1923              	.LFB270:
 1924              		.loc 1 377 0
 1925              		.cfi_startproc
 1926              		@ args = 0, pretend = 0, frame = 8
 1927              		@ frame_needed = 0, uses_anonymous_args = 0
 1928              	.LVL129:
 1929 0000 00B5     		push	{lr}
 1930              		.cfi_def_cfa_offset 4
 1931              		.cfi_offset 14, -4
 1932 0002 0B4B     		ldr	r3, .L192
 1933 0004 83B0     		sub	sp, sp, #12
 1934              		.cfi_def_cfa_offset 16
 1935              		.loc 1 377 0
 1936 0006 1A68     		ldr	r2, [r3]
 1937 0008 0192     		str	r2, [sp, #4]
 1938              		.loc 1 378 0
ARM GAS  /var/folders/rv/m1ccwdpx5lz8hgtj5gzs6dn40000gn/T//ccuQl80x.s 			page 35


 1939 000a 0228     		cmp	r0, #2
 1940              		.loc 1 379 0
 1941 000c 9CBF     		itt	ls
 1942 000e 094A     		ldrls	r2, .L192+4
 1943 0010 02EB4000 		addls	r0, r2, r0, lsl #1
 1944              	.LVL130:
 1945              		.loc 1 382 0
 1946 0014 019A     		ldr	r2, [sp, #4]
 1947 0016 1B68     		ldr	r3, [r3]
 1948              		.loc 1 379 0
 1949 0018 94BF     		ite	ls
 1950 001a B0F93A00 		ldrshls	r0, [r0, #58]
 1951              		.loc 1 381 0
 1952 001e 0020     		movhi	r0, #0
 1953              		.loc 1 382 0
 1954 0020 9A42     		cmp	r2, r3
 1955 0022 02D1     		bne	.L191
 1956 0024 03B0     		add	sp, sp, #12
 1957              		.cfi_remember_state
 1958              		.cfi_def_cfa_offset 4
 1959              		@ sp needed
 1960 0026 5DF804FB 		ldr	pc, [sp], #4
 1961              	.L191:
 1962              		.cfi_restore_state
 1963 002a FFF7FEFF 		bl	__stack_chk_fail
 1964              	.LVL131:
 1965              	.L193:
 1966 002e 00BF     		.align	2
 1967              	.L192:
 1968 0030 00000000 		.word	__stack_chk_guard
 1969 0034 00000000 		.word	.LANCHOR5
 1970              		.cfi_endproc
 1971              	.LFE270:
 1972              		.size	get_gyro_offset, .-get_gyro_offset
 1973              		.section	.text.calibrate_gyro,"ax",%progbits
 1974              		.align	1
 1975              		.p2align 4,,15
 1976              		.global	calibrate_gyro
 1977              		.syntax unified
 1978              		.thumb
 1979              		.thumb_func
 1980              		.fpu fpv4-sp-d16
 1981              		.type	calibrate_gyro, %function
 1982              	calibrate_gyro:
 1983              	.LFB271:
 1984              		.loc 1 385 0
 1985              		.cfi_startproc
 1986              		@ args = 0, pretend = 0, frame = 8
 1987              		@ frame_needed = 0, uses_anonymous_args = 0
 1988 0000 70B5     		push	{r4, r5, r6, lr}
 1989              		.cfi_def_cfa_offset 16
 1990              		.cfi_offset 4, -16
 1991              		.cfi_offset 5, -12
 1992              		.cfi_offset 6, -8
 1993              		.cfi_offset 14, -4
 1994              		.loc 1 386 0
 1995 0002 114B     		ldr	r3, .L202
ARM GAS  /var/folders/rv/m1ccwdpx5lz8hgtj5gzs6dn40000gn/T//ccuQl80x.s 			page 36


 1996              		.loc 1 385 0
 1997 0004 114C     		ldr	r4, .L202+4
 1998              		.loc 1 386 0
 1999 0006 1B78     		ldrb	r3, [r3]	@ zero_extendqisi2
 2000              		.loc 1 385 0
 2001 0008 2268     		ldr	r2, [r4]
 2002 000a 82B0     		sub	sp, sp, #8
 2003              		.cfi_def_cfa_offset 24
 2004              		.loc 1 385 0
 2005 000c 0192     		str	r2, [sp, #4]
 2006              		.loc 1 386 0
 2007 000e 93B1     		cbz	r3, .L194
 2008              		.loc 1 387 0
 2009 0010 0F4D     		ldr	r5, .L202+8
 2010 0012 0126     		movs	r6, #1
 2011              	.LBB140:
 2012              	.LBB141:
 2013 0014 3221     		movs	r1, #50
 2014 0016 0020     		movs	r0, #0
 2015              	.LBE141:
 2016              	.LBE140:
 2017 0018 2E70     		strb	r6, [r5]
 2018              	.LVL132:
 2019              	.LBB143:
 2020              	.LBB142:
 2021 001a FFF7FEFF 		bl	get_gyro_filtered.part.1
 2022              	.LVL133:
 2023              	.LBE142:
 2024              	.LBE143:
 2025              	.LBB144:
 2026              	.LBB145:
 2027 001e 3221     		movs	r1, #50
 2028 0020 3046     		mov	r0, r6
 2029              	.LBE145:
 2030              	.LBE144:
 2031              		.loc 1 389 0
 2032 0022 2E70     		strb	r6, [r5]
 2033              	.LVL134:
 2034              	.LBB147:
 2035              	.LBB146:
 2036 0024 FFF7FEFF 		bl	get_gyro_filtered.part.1
 2037              	.LVL135:
 2038              	.LBE146:
 2039              	.LBE147:
 2040              	.LBB148:
 2041              	.LBB149:
 2042 0028 3221     		movs	r1, #50
 2043 002a 0220     		movs	r0, #2
 2044              	.LBE149:
 2045              	.LBE148:
 2046              		.loc 1 391 0
 2047 002c 2E70     		strb	r6, [r5]
 2048              	.LVL136:
 2049              	.LBB151:
 2050              	.LBB150:
 2051 002e FFF7FEFF 		bl	get_gyro_filtered.part.1
 2052              	.LVL137:
ARM GAS  /var/folders/rv/m1ccwdpx5lz8hgtj5gzs6dn40000gn/T//ccuQl80x.s 			page 37


 2053              	.LBE150:
 2054              	.LBE151:
 2055              		.loc 1 393 0
 2056 0032 0023     		movs	r3, #0
 2057 0034 2B70     		strb	r3, [r5]
 2058              	.L194:
 2059              		.loc 1 396 0
 2060 0036 019A     		ldr	r2, [sp, #4]
 2061 0038 2368     		ldr	r3, [r4]
 2062 003a 9A42     		cmp	r2, r3
 2063 003c 01D1     		bne	.L201
 2064 003e 02B0     		add	sp, sp, #8
 2065              		.cfi_remember_state
 2066              		.cfi_def_cfa_offset 16
 2067              		@ sp needed
 2068 0040 70BD     		pop	{r4, r5, r6, pc}
 2069              	.L201:
 2070              		.cfi_restore_state
 2071 0042 FFF7FEFF 		bl	__stack_chk_fail
 2072              	.LVL138:
 2073              	.L203:
 2074 0046 00BF     		.align	2
 2075              	.L202:
 2076 0048 00000000 		.word	.LANCHOR0
 2077 004c 00000000 		.word	__stack_chk_guard
 2078 0050 00000000 		.word	.LANCHOR13
 2079              		.cfi_endproc
 2080              	.LFE271:
 2081              		.size	calibrate_gyro, .-calibrate_gyro
 2082              		.section	.text.get_gyro_rate,"ax",%progbits
 2083              		.align	1
 2084              		.p2align 4,,15
 2085              		.global	get_gyro_rate
 2086              		.syntax unified
 2087              		.thumb
 2088              		.thumb_func
 2089              		.fpu fpv4-sp-d16
 2090              		.type	get_gyro_rate, %function
 2091              	get_gyro_rate:
 2092              	.LFB272:
 2093              		.loc 1 398 0
 2094              		.cfi_startproc
 2095              		@ args = 0, pretend = 0, frame = 8
 2096              		@ frame_needed = 0, uses_anonymous_args = 0
 2097              	.LVL139:
 2098 0000 00B5     		push	{lr}
 2099              		.cfi_def_cfa_offset 4
 2100              		.cfi_offset 14, -4
 2101 0002 0B4B     		ldr	r3, .L210
 2102 0004 83B0     		sub	sp, sp, #12
 2103              		.cfi_def_cfa_offset 16
 2104              		.loc 1 398 0
 2105 0006 1A68     		ldr	r2, [r3]
 2106 0008 0192     		str	r2, [sp, #4]
 2107              		.loc 1 399 0
 2108 000a 0228     		cmp	r0, #2
 2109              		.loc 1 400 0
ARM GAS  /var/folders/rv/m1ccwdpx5lz8hgtj5gzs6dn40000gn/T//ccuQl80x.s 			page 38


 2110 000c 96BF     		itet	ls
 2111 000e 094A     		ldrls	r2, .L210+4
 2112              		.loc 1 402 0
 2113 0010 9FED090A 		vldrhi.32	s0, .L210+8
 2114              		.loc 1 400 0
 2115 0014 02EB8000 		addls	r0, r2, r0, lsl #2
 2116              	.LVL140:
 2117              		.loc 1 403 0
 2118 0018 019A     		ldr	r2, [sp, #4]
 2119 001a 1B68     		ldr	r3, [r3]
 2120              		.loc 1 400 0
 2121 001c 98BF     		it	ls
 2122 001e 90ED030A 		vldrls.32	s0, [r0, #12]
 2123              		.loc 1 403 0
 2124 0022 9A42     		cmp	r2, r3
 2125 0024 02D1     		bne	.L209
 2126 0026 03B0     		add	sp, sp, #12
 2127              		.cfi_remember_state
 2128              		.cfi_def_cfa_offset 4
 2129              		@ sp needed
 2130 0028 5DF804FB 		ldr	pc, [sp], #4
 2131              	.L209:
 2132              		.cfi_restore_state
 2133 002c FFF7FEFF 		bl	__stack_chk_fail
 2134              	.LVL141:
 2135              	.L211:
 2136              		.align	2
 2137              	.L210:
 2138 0030 00000000 		.word	__stack_chk_guard
 2139 0034 00000000 		.word	.LANCHOR5
 2140 0038 00000000 		.word	0
 2141              		.cfi_endproc
 2142              	.LFE272:
 2143              		.size	get_gyro_rate, .-get_gyro_rate
 2144              		.section	.text.get_temperature,"ax",%progbits
 2145              		.align	1
 2146              		.p2align 4,,15
 2147              		.global	get_temperature
 2148              		.syntax unified
 2149              		.thumb
 2150              		.thumb_func
 2151              		.fpu fpv4-sp-d16
 2152              		.type	get_temperature, %function
 2153              	get_temperature:
 2154              	.LFB273:
 2155              		.loc 1 405 0
 2156              		.cfi_startproc
 2157              		@ args = 0, pretend = 0, frame = 8
 2158              		@ frame_needed = 0, uses_anonymous_args = 0
 2159 0000 00B5     		push	{lr}
 2160              		.cfi_def_cfa_offset 4
 2161              		.cfi_offset 14, -4
 2162 0002 084B     		ldr	r3, .L216
 2163              		.loc 1 406 0
 2164 0004 0849     		ldr	r1, .L216+4
 2165              		.loc 1 405 0
 2166 0006 1A68     		ldr	r2, [r3]
ARM GAS  /var/folders/rv/m1ccwdpx5lz8hgtj5gzs6dn40000gn/T//ccuQl80x.s 			page 39


 2167              		.loc 1 407 0
 2168 0008 91ED060A 		vldr.32	s0, [r1, #24]
 2169              		.loc 1 405 0
 2170 000c 83B0     		sub	sp, sp, #12
 2171              		.cfi_def_cfa_offset 16
 2172              		.loc 1 405 0
 2173 000e 0192     		str	r2, [sp, #4]
 2174              		.loc 1 407 0
 2175 0010 019A     		ldr	r2, [sp, #4]
 2176 0012 1B68     		ldr	r3, [r3]
 2177 0014 9A42     		cmp	r2, r3
 2178 0016 02D1     		bne	.L215
 2179 0018 03B0     		add	sp, sp, #12
 2180              		.cfi_remember_state
 2181              		.cfi_def_cfa_offset 4
 2182              		@ sp needed
 2183 001a 5DF804FB 		ldr	pc, [sp], #4
 2184              	.L215:
 2185              		.cfi_restore_state
 2186 001e FFF7FEFF 		bl	__stack_chk_fail
 2187              	.LVL142:
 2188              	.L217:
 2189 0022 00BF     		.align	2
 2190              	.L216:
 2191 0024 00000000 		.word	__stack_chk_guard
 2192 0028 00000000 		.word	.LANCHOR5
 2193              		.cfi_endproc
 2194              	.LFE273:
 2195              		.size	get_temperature, .-get_temperature
 2196              		.section	.bss.accAxisFilteringInProgress,"aw",%nobits
 2197              		.set	.LANCHOR2,. + 0
 2198              		.type	accAxisFilteringInProgress, %object
 2199              		.size	accAxisFilteringInProgress, 1
 2200              	accAxisFilteringInProgress:
 2201 0000 00       		.space	1
 2202              		.section	.bss.accAxisFilteringState,"aw",%nobits
 2203              		.set	.LANCHOR1,. + 0
 2204              		.type	accAxisFilteringState, %object
 2205              		.size	accAxisFilteringState, 1
 2206              	accAxisFilteringState:
 2207 0000 00       		.space	1
 2208              		.section	.bss.accAxisSelected,"aw",%nobits
 2209              		.set	.LANCHOR3,. + 0
 2210              		.type	accAxisSelected, %object
 2211              		.size	accAxisSelected, 1
 2212              	accAxisSelected:
 2213 0000 00       		.space	1
 2214              		.section	.bss.accCalibrationInProgress,"aw",%nobits
 2215              		.set	.LANCHOR12,. + 0
 2216              		.type	accCalibrationInProgress, %object
 2217              		.size	accCalibrationInProgress, 1
 2218              	accCalibrationInProgress:
 2219 0000 00       		.space	1
 2220              		.section	.bss.accFilterSize,"aw",%nobits
 2221              		.set	.LANCHOR4,. + 0
 2222              		.type	accFilterSize, %object
 2223              		.size	accFilterSize, 1
ARM GAS  /var/folders/rv/m1ccwdpx5lz8hgtj5gzs6dn40000gn/T//ccuQl80x.s 			page 40


 2224              	accFilterSize:
 2225 0000 00       		.space	1
 2226              		.section	.bss.gyroAxisFilteringInProgress,"aw",%nobits
 2227              		.set	.LANCHOR7,. + 0
 2228              		.type	gyroAxisFilteringInProgress, %object
 2229              		.size	gyroAxisFilteringInProgress, 1
 2230              	gyroAxisFilteringInProgress:
 2231 0000 00       		.space	1
 2232              		.section	.bss.gyroAxisFilteringState,"aw",%nobits
 2233              		.set	.LANCHOR6,. + 0
 2234              		.type	gyroAxisFilteringState, %object
 2235              		.size	gyroAxisFilteringState, 1
 2236              	gyroAxisFilteringState:
 2237 0000 00       		.space	1
 2238              		.section	.bss.gyroAxisSelected,"aw",%nobits
 2239              		.set	.LANCHOR8,. + 0
 2240              		.type	gyroAxisSelected, %object
 2241              		.size	gyroAxisSelected, 1
 2242              	gyroAxisSelected:
 2243 0000 00       		.space	1
 2244              		.section	.bss.gyroCalibrationInProgress,"aw",%nobits
 2245              		.set	.LANCHOR13,. + 0
 2246              		.type	gyroCalibrationInProgress, %object
 2247              		.size	gyroCalibrationInProgress, 1
 2248              	gyroCalibrationInProgress:
 2249 0000 00       		.space	1
 2250              		.section	.bss.gyroFilterSize,"aw",%nobits
 2251              		.set	.LANCHOR9,. + 0
 2252              		.type	gyroFilterSize, %object
 2253              		.size	gyroFilterSize, 1
 2254              	gyroFilterSize:
 2255 0000 00       		.space	1
 2256              		.section	.bss.imuThd,"aw",%nobits
 2257              		.align	2
 2258              		.set	.LANCHOR15,. + 0
 2259              		.type	imuThd, %object
 2260              		.size	imuThd, 4
 2261              	imuThd:
 2262 0000 00000000 		.space	4
 2263              		.section	.bss.imu_configured,"aw",%nobits
 2264              		.set	.LANCHOR0,. + 0
 2265              		.type	imu_configured, %object
 2266              		.size	imu_configured, 1
 2267              	imu_configured:
 2268 0000 00       		.space	1
 2269              		.section	.bss.imu_reader_thd_wa,"aw",%nobits
 2270              		.align	3
 2271              		.set	.LANCHOR14,. + 0
 2272              		.type	imu_reader_thd_wa, %object
 2273              		.size	imu_reader_thd_wa, 888
 2274              	imu_reader_thd_wa:
 2275 0000 00000000 		.space	888
 2275      00000000 
 2275      00000000 
 2275      00000000 
 2275      00000000 
 2276              		.section	.bss.imu_values,"aw",%nobits
ARM GAS  /var/folders/rv/m1ccwdpx5lz8hgtj5gzs6dn40000gn/T//ccuQl80x.s 			page 41


 2277              		.align	2
 2278              		.set	.LANCHOR5,. + 0
 2279              		.type	imu_values, %object
 2280              		.size	imu_values, 80
 2281              	imu_values:
 2282 0000 00000000 		.space	80
 2282      00000000 
 2282      00000000 
 2282      00000000 
 2282      00000000 
 2283              		.section	.rodata.__FUNCTION__.11776,"a",%progbits
 2284              		.align	2
 2285              		.set	.LANCHOR10,. + 0
 2286              		.type	__FUNCTION__.11776, %object
 2287              		.size	__FUNCTION__.11776, 15
 2288              	__FUNCTION__.11776:
 2289 0000 696D755F 		.ascii	"imu_reader_thd\000"
 2289      72656164 
 2289      65725F74 
 2289      686400
 2290              		.section	.rodata.__func__.7153,"a",%progbits
 2291              		.align	2
 2292              		.set	.LANCHOR11,. + 0
 2293              		.type	__func__.7153, %object
 2294              		.size	__func__.7153, 12
 2295              	__func__.7153:
 2296 0000 63685379 		.ascii	"chSysUnlock\000"
 2296      73556E6C 
 2296      6F636B00 
 2297              		.section	.rodata.chprintf.constprop.2.str1.4,"aMS",%progbits,1
 2298              		.align	2
 2299              	.LC0:
 2300 0000 74696D65 		.ascii	"time = %dus\012\000"
 2300      203D2025 
 2300      6475730A 
 2300      00
 2301              		.section	.rodata.imu_reader_thd.str1.4,"aMS",%progbits,1
 2302              		.align	2
 2303              	.LC1:
 2304 0000 2F696D75 		.ascii	"/imu\000"
 2304      00
 2305              		.text
 2306              	.Letext0:
 2307              		.file 8 "/Users/quentin/Documents/Travail/Robotique/TP1_blinky/Tools/gcc-arm-none-eabi-7-2017-q4-m
 2308              		.file 9 "/Users/quentin/Documents/Travail/Robotique/TP1_blinky/Tools/gcc-arm-none-eabi-7-2017-q4-m
 2309              		.file 10 "/Users/quentin/Documents/Travail/Robotique/TP1_blinky/Tools/gcc-arm-none-eabi-7-2017-q4-
 2310              		.file 11 "../../lib/e-puck2_main-processor/ChibiOS//os/rt/ports/ARMCMx/compilers/GCC/chtypes.h"
 2311              		.file 12 "../../lib/e-puck2_main-processor/ChibiOS//os/rt/include/chsystypes.h"
 2312              		.file 13 "../../lib/e-puck2_main-processor/ChibiOS//os/rt/include/chschd.h"
 2313              		.file 14 "../../lib/e-puck2_main-processor/ChibiOS//os/ext/CMSIS/include/core_cm4.h"
 2314              		.file 15 "../../lib/e-puck2_main-processor/ChibiOS//os/ext/CMSIS/ST/system_stm32f4xx.h"
 2315              		.file 16 "../../lib/e-puck2_main-processor/ChibiOS//os/ext/CMSIS/ST/stm32f407xx.h"
 2316              		.file 17 "../../lib/e-puck2_main-processor/ChibiOS//os/rt/ports/ARMCMx/chcore.h"
 2317              		.file 18 "../../lib/e-puck2_main-processor/ChibiOS//os/rt/ports/ARMCMx/chcore_v7m.h"
 2318              		.file 19 "../../lib/e-puck2_main-processor/ChibiOS//os/rt/include/chdebug.h"
 2319              		.file 20 "../../lib/e-puck2_main-processor/ChibiOS//os/rt/include/chtm.h"
 2320              		.file 21 "../../lib/e-puck2_main-processor/ChibiOS//os/rt/include/chstats.h"
ARM GAS  /var/folders/rv/m1ccwdpx5lz8hgtj5gzs6dn40000gn/T//ccuQl80x.s 			page 42


 2321              		.file 22 "../../lib/e-puck2_main-processor/ChibiOS//os/rt/include/chsem.h"
 2322              		.file 23 "../../lib/e-puck2_main-processor/ChibiOS//os/rt/include/chmtx.h"
 2323              		.file 24 "../../lib/e-puck2_main-processor/ChibiOS//os/rt/include/chcond.h"
 2324              		.file 25 "../../lib/e-puck2_main-processor/ChibiOS//os/rt/include/chevents.h"
 2325              		.file 26 "../../lib/e-puck2_main-processor/ChibiOS//os/rt/include/chqueues.h"
 2326              		.file 27 "../../lib/e-puck2_main-processor/ChibiOS//os/rt/include/chstreams.h"
 2327              		.file 28 "../../lib/e-puck2_main-processor/ChibiOS//os/hal/ports/STM32/STM32F4xx/stm32_dma.h"
 2328              		.file 29 "../../lib/e-puck2_main-processor/ChibiOS//os/hal/include/hal_ioblock.h"
 2329              		.file 30 "../../lib/e-puck2_main-processor/ChibiOS//os/hal/ports/STM32/LLD/GPIOv2/pal_lld.h"
 2330              		.file 31 "../../lib/e-puck2_main-processor/ChibiOS//os/hal/include/adc.h"
 2331              		.file 32 "../../lib/e-puck2_main-processor/ChibiOS//os/hal/ports/STM32/STM32F4xx/adc_lld.h"
 2332              		.file 33 "../../lib/e-puck2_main-processor/ChibiOS//os/hal/include/can.h"
 2333              		.file 34 "../../lib/e-puck2_main-processor/ChibiOS//os/hal/ports/STM32/LLD/can_lld.h"
 2334              		.file 35 "../../lib/e-puck2_main-processor/ChibiOS//os/hal/include/dac.h"
 2335              		.file 36 "../../lib/e-puck2_main-processor/ChibiOS//os/hal/ports/STM32/LLD/DACv1/dac_lld.h"
 2336              		.file 37 "../../lib/e-puck2_main-processor/ChibiOS//os/hal/include/ext.h"
 2337              		.file 38 "../../lib/e-puck2_main-processor/ChibiOS//os/hal/ports/STM32/LLD/ext_lld.h"
 2338              		.file 39 "../../lib/e-puck2_main-processor/ChibiOS//os/hal/include/gpt.h"
 2339              		.file 40 "../../lib/e-puck2_main-processor/ChibiOS//os/hal/ports/STM32/LLD/TIMv1/gpt_lld.h"
 2340              		.file 41 "../../lib/e-puck2_main-processor/ChibiOS//os/hal/ports/STM32/LLD/TIMv1/stm32_tim.h"
 2341              		.file 42 "../../lib/e-puck2_main-processor/ChibiOS//os/hal/include/i2c.h"
 2342              		.file 43 "../../lib/e-puck2_main-processor/ChibiOS//os/hal/ports/STM32/LLD/I2Cv1/i2c_lld.h"
 2343              		.file 44 "../../lib/e-puck2_main-processor/ChibiOS//os/hal/include/i2s.h"
 2344              		.file 45 "../../lib/e-puck2_main-processor/ChibiOS//os/hal/ports/STM32/LLD/SPIv1/i2s_lld.h"
 2345              		.file 46 "../../lib/e-puck2_main-processor/ChibiOS//os/hal/include/pwm.h"
 2346              		.file 47 "../../lib/e-puck2_main-processor/ChibiOS//os/hal/ports/STM32/LLD/TIMv1/pwm_lld.h"
 2347              		.file 48 "../../lib/e-puck2_main-processor/ChibiOS//os/hal/include/serial.h"
 2348              		.file 49 "../../lib/e-puck2_main-processor/ChibiOS//os/hal/ports/STM32/LLD/USARTv1/serial_lld.h"
 2349              		.file 50 "../../lib/e-puck2_main-processor/ChibiOS//os/hal/include/sdc.h"
 2350              		.file 51 "../../lib/e-puck2_main-processor/ChibiOS//os/hal/ports/STM32/LLD/sdc_lld.h"
 2351              		.file 52 "../../lib/e-puck2_main-processor/ChibiOS//os/hal/include/spi.h"
 2352              		.file 53 "../../lib/e-puck2_main-processor/ChibiOS//os/hal/ports/STM32/LLD/SPIv1/spi_lld.h"
 2353              		.file 54 "../../lib/e-puck2_main-processor/ChibiOS//os/hal/include/usb.h"
 2354              		.file 55 "../../lib/e-puck2_main-processor/ChibiOS//os/hal/ports/STM32/LLD/OTGv1/usb_lld.h"
 2355              		.file 56 "../../lib/e-puck2_main-processor/ChibiOS//os/hal/ports/STM32/LLD/OTGv1/stm32_otg.h"
 2356              		.file 57 "../../lib/e-puck2_main-processor/ChibiOS//os/hal/include/serial_usb.h"
 2357              		.file 58 "/Users/quentin/Documents/Travail/Robotique/TP1_blinky/Tools/gcc-arm-none-eabi-7-2017-q4-
 2358              		.file 59 "/Users/quentin/Documents/Travail/Robotique/TP1_blinky/Tools/gcc-arm-none-eabi-7-2017-q4-
 2359              		.file 60 "<built-in>"
 2360              		.file 61 "/Users/quentin/Documents/Travail/Robotique/TP1_blinky/Tools/gcc-arm-none-eabi-7-2017-q4-
 2361              		.file 62 "../../lib/e-puck2_main-processor/src/msgbus/messagebus.h"
 2362              		.file 63 "/Users/quentin/Documents/Travail/Robotique/TP1_blinky/Tools/gcc-arm-none-eabi-7-2017-q4-
 2363              		.file 64 "/Users/quentin/Documents/Travail/Robotique/TP1_blinky/Tools/gcc-arm-none-eabi-7-2017-q4-
 2364              		.file 65 "../../lib/e-puck2_main-processor/src/parameter/parameter.h"
 2365              		.file 66 "./main.h"
 2366              		.file 67 "../../lib/e-puck2_main-processor/src/usbcfg.h"
 2367              		.file 68 "/Users/quentin/Documents/Travail/Robotique/TP1_blinky/Tools/gcc-arm-none-eabi-7-2017-q4-
 2368              		.file 69 "../../lib/e-puck2_main-processor/src/sensors/mpu9250.h"
 2369              		.file 70 "imu.h"
 2370              		.file 71 "../../lib/e-puck2_main-processor/src/exti.h"
 2371              		.file 72 "/Users/quentin/Documents/Travail/Robotique/TP1_blinky/Tools/gcc-arm-none-eabi-7-2017-q4-
 2372              		.file 73 "i2c_bus.h"