ARM GAS  /var/folders/lm/0cn7d9cx3675ck1h97jhfmgw0000gn/T//ccAdgGiG.s 			page 1


   1              		.cpu cortex-m4
   2              		.eabi_attribute 27, 1
   3              		.eabi_attribute 28, 1
   4              		.eabi_attribute 20, 1
   5              		.eabi_attribute 21, 1
   6              		.eabi_attribute 23, 3
   7              		.eabi_attribute 24, 1
   8              		.eabi_attribute 25, 1
   9              		.eabi_attribute 26, 1
  10              		.eabi_attribute 30, 2
  11              		.eabi_attribute 34, 1
  12              		.eabi_attribute 18, 4
  13              		.file	"main.c"
  14              		.text
  15              	.Ltext0:
  16              		.cfi_sections	.debug_frame
  17              		.section	.text.chprintf.constprop.0,"ax",%progbits
  18              		.align	1
  19              		.p2align 4,,15
  20              		.syntax unified
  21              		.thumb
  22              		.thumb_func
  23              		.fpu fpv4-sp-d16
  24              		.type	chprintf.constprop.0, %function
  25              	chprintf.constprop.0:
  26              	.LFB264:
  27              		.file 1 "../../lib/e-puck2_main-processor/ChibiOS//os/hal/lib/streams/chprintf.h"
  28              		.loc 1 69 0
  29              		.cfi_startproc
  30              		@ args = 4, pretend = 12, frame = 8
  31              		@ frame_needed = 0, uses_anonymous_args = 1
  32              	.LVL0:
  33 0000 0EB4     		push	{r1, r2, r3}
  34              		.cfi_def_cfa_offset 12
  35              		.cfi_offset 1, -12
  36              		.cfi_offset 2, -8
  37              		.cfi_offset 3, -4
  38 0002 10B5     		push	{r4, lr}
  39              		.cfi_def_cfa_offset 20
  40              		.cfi_offset 4, -20
  41              		.cfi_offset 14, -16
  42 0004 83B0     		sub	sp, sp, #12
  43              		.cfi_def_cfa_offset 32
  44              		.loc 1 69 0
  45 0006 05AA     		add	r2, sp, #20
  46 0008 094C     		ldr	r4, .L6
  47 000a 52F8041B 		ldr	r1, [r2], #4
  48 000e 2368     		ldr	r3, [r4]
  49              		.loc 1 74 0
  50 0010 0848     		ldr	r0, .L6+4
  51              	.LVL1:
  52              		.loc 1 73 0
  53 0012 0092     		str	r2, [sp]
  54              		.loc 1 69 0
  55 0014 0193     		str	r3, [sp, #4]
  56              	.LVL2:
  57              		.loc 1 74 0
ARM GAS  /var/folders/lm/0cn7d9cx3675ck1h97jhfmgw0000gn/T//ccAdgGiG.s 			page 2


  58 0016 FFF7FEFF 		bl	chvprintf
  59              	.LVL3:
  60              		.loc 1 78 0
  61 001a 019A     		ldr	r2, [sp, #4]
  62 001c 2368     		ldr	r3, [r4]
  63 001e 9A42     		cmp	r2, r3
  64 0020 04D1     		bne	.L5
  65 0022 03B0     		add	sp, sp, #12
  66              		.cfi_remember_state
  67              		.cfi_def_cfa_offset 20
  68              		@ sp needed
  69 0024 BDE81040 		pop	{r4, lr}
  70              		.cfi_restore 14
  71              		.cfi_restore 4
  72              		.cfi_def_cfa_offset 12
  73 0028 03B0     		add	sp, sp, #12
  74              		.cfi_restore 3
  75              		.cfi_restore 2
  76              		.cfi_restore 1
  77              		.cfi_def_cfa_offset 0
  78 002a 7047     		bx	lr
  79              	.L5:
  80              		.cfi_restore_state
  81 002c FFF7FEFF 		bl	__stack_chk_fail
  82              	.LVL4:
  83              	.L7:
  84              		.align	2
  85              	.L6:
  86 0030 00000000 		.word	__stack_chk_guard
  87 0034 00000000 		.word	SD3
  88              		.cfi_endproc
  89              	.LFE264:
  90              		.size	chprintf.constprop.0, .-chprintf.constprop.0
  91              		.global	__aeabi_f2d
  92              		.section	.text.startup.main,"ax",%progbits
  93              		.align	1
  94              		.p2align 4,,15
  95              		.global	main
  96              		.syntax unified
  97              		.thumb
  98              		.thumb_func
  99              		.fpu fpv4-sp-d16
 100              		.type	main, %function
 101              	main:
 102              	.LFB262:
 103              		.file 2 "main.c"
 104              		.loc 2 53 0
 105              		.cfi_startproc
 106              		@ args = 0, pretend = 0, frame = 88
 107              		@ frame_needed = 0, uses_anonymous_args = 0
 108 0000 2DE9F04F 		push	{r4, r5, r6, r7, r8, r9, r10, fp, lr}
 109              		.cfi_def_cfa_offset 36
 110              		.cfi_offset 4, -36
 111              		.cfi_offset 5, -32
 112              		.cfi_offset 6, -28
 113              		.cfi_offset 7, -24
 114              		.cfi_offset 8, -20
ARM GAS  /var/folders/lm/0cn7d9cx3675ck1h97jhfmgw0000gn/T//ccAdgGiG.s 			page 3


 115              		.cfi_offset 9, -16
 116              		.cfi_offset 10, -12
 117              		.cfi_offset 11, -8
 118              		.cfi_offset 14, -4
 119 0004 4F4B     		ldr	r3, .L12
 120              		.loc 2 97 0
 121 0006 504C     		ldr	r4, .L12+4
 122              		.loc 2 53 0
 123 0008 1B68     		ldr	r3, [r3]
 124              		.loc 2 97 0
 125 000a 504D     		ldr	r5, .L12+8
 126              		.loc 2 111 0
 127 000c DFF85C91 		ldr	r9, .L12+40
 128              		.loc 2 53 0
 129 0010 A3B0     		sub	sp, sp, #140
 130              		.cfi_def_cfa_offset 176
 131              		.loc 2 53 0
 132 0012 2193     		str	r3, [sp, #132]
 133              		.loc 2 58 0
 134 0014 FFF7FEFF 		bl	usb_start
 135              	.LVL5:
 136              	.LBB8:
 137              	.LBB9:
 138              		.loc 2 45 0
 139 0018 4D49     		ldr	r1, .L12+12
 140 001a 4E48     		ldr	r0, .L12+16
 141 001c FFF7FEFF 		bl	gptStart
 142              	.LVL6:
 143              		.loc 2 47 0
 144 0020 4FF6FF71 		movw	r1, #65535
 145 0024 4B48     		ldr	r0, .L12+16
 146 0026 FFF7FEFF 		bl	gptStartContinuous
 147              	.LVL7:
 148              	.LBE9:
 149              	.LBE8:
 150              		.loc 2 62 0
 151 002a FFF7FEFF 		bl	motors_init
 152              	.LVL8:
 153              		.loc 2 66 0
 154 002e FFF7FEFF 		bl	halInit
 155              	.LVL9:
 156              		.loc 2 67 0
 157 0032 FFF7FEFF 		bl	chSysInit
 158              	.LVL10:
 159              	.LBB10:
 160              	.LBB11:
 161              		.loc 2 31 0
 162 0036 4849     		ldr	r1, .L12+20
 163 0038 2046     		mov	r0, r4
 164 003a FFF7FEFF 		bl	sdStart
 165              	.LVL11:
 166              	.LBE11:
 167              	.LBE10:
 168              		.loc 2 70 0
 169 003e FFF7FEFF 		bl	i2c_start
 170              	.LVL12:
 171              		.loc 2 71 0
ARM GAS  /var/folders/lm/0cn7d9cx3675ck1h97jhfmgw0000gn/T//ccAdgGiG.s 			page 4


 172 0042 FFF7FEFF 		bl	imu_start
 173              	.LVL13:
 174              		.loc 2 74 0
 175 0046 FFF7FEFF 		bl	VL53L0X_start
 176              	.LVL14:
 177              		.loc 2 80 0
 178 004a 444A     		ldr	r2, .L12+24
 179 004c 4449     		ldr	r1, .L12+28
 180 004e 4548     		ldr	r0, .L12+32
 181 0050 FFF7FEFF 		bl	messagebus_init
 182              	.LVL15:
 183              		.loc 2 86 0
 184 0054 4449     		ldr	r1, .L12+36
 185 0056 4348     		ldr	r0, .L12+32
 186 0058 FFF7FEFF 		bl	messagebus_find_topic_blocking
 187              	.LVL16:
 188 005c 8046     		mov	r8, r0
 189              	.LVL17:
 190              		.loc 2 90 0
 191 005e 4FF4FA60 		mov	r0, #2000
 192              	.LVL18:
 193 0062 FFF7FEFF 		bl	chThdSleep
 194              	.LVL19:
 195              	.L9:
 196              		.loc 2 95 0 discriminator 1
 197 0066 0DA9     		add	r1, sp, #52
 198 0068 4046     		mov	r0, r8
 199 006a 5022     		movs	r2, #80
 200 006c FFF7FEFF 		bl	messagebus_topic_wait
 201              	.LVL20:
 202              		.loc 2 97 0 discriminator 1
 203 0070 BDF96670 		ldrsh	r7, [sp, #102]
 204 0074 BDF96460 		ldrsh	r6, [sp, #100]
 205 0078 BDF96200 		ldrsh	r0, [sp, #98]
 206 007c BDF96010 		ldrsh	r1, [sp, #96]
 207 0080 BDF95E30 		ldrsh	r3, [sp, #94]
 208 0084 BDF95C20 		ldrsh	r2, [sp, #92]
 209 0088 CDE90267 		strd	r6, r7, [sp, #8]
 210 008c CDE90010 		strd	r1, r0, [sp]
 211 0090 2946     		mov	r1, r5
 212 0092 2046     		mov	r0, r4
 213 0094 FFF7FEFF 		bl	chprintf.constprop.0
 214              	.LVL21:
 215              		.loc 2 108 0 discriminator 1
 216 0098 BDF966B0 		ldrsh	fp, [sp, #102]
 217 009c BDF97220 		ldrsh	r2, [sp, #114]
 218              		.loc 2 107 0 discriminator 1
 219 00a0 BDF97070 		ldrsh	r7, [sp, #112]
 220 00a4 BDF96460 		ldrsh	r6, [sp, #100]
 221              		.loc 2 105 0 discriminator 1
 222 00a8 BDF96CE0 		ldrsh	lr, [sp, #108]
 223              		.loc 2 106 0 discriminator 1
 224 00ac BDF96200 		ldrsh	r0, [sp, #98]
 225 00b0 BDF96EA0 		ldrsh	r10, [sp, #110]
 226              		.loc 2 105 0 discriminator 1
 227 00b4 BDF96010 		ldrsh	r1, [sp, #96]
 228              		.loc 2 104 0 discriminator 1
ARM GAS  /var/folders/lm/0cn7d9cx3675ck1h97jhfmgw0000gn/T//ccAdgGiG.s 			page 5


 229 00b8 BDF95EC0 		ldrsh	ip, [sp, #94]
 230 00bc BDF96A30 		ldrsh	r3, [sp, #106]
 231              		.loc 2 102 0 discriminator 1
 232 00c0 ABEB0202 		sub	r2, fp, r2
 233 00c4 F61B     		subs	r6, r6, r7
 234 00c6 0392     		str	r2, [sp, #12]
 235              		.loc 2 103 0 discriminator 1
 236 00c8 BDF95C70 		ldrsh	r7, [sp, #92]
 237 00cc BDF96820 		ldrsh	r2, [sp, #104]
 238              		.loc 2 102 0 discriminator 1
 239 00d0 0296     		str	r6, [sp, #8]
 240 00d2 A1EB0E01 		sub	r1, r1, lr
 241 00d6 A0EB0A00 		sub	r0, r0, r10
 242 00da ACEB0303 		sub	r3, ip, r3
 243 00de BA1A     		subs	r2, r7, r2
 244 00e0 CDE90010 		strd	r1, r0, [sp]
 245 00e4 2946     		mov	r1, r5
 246 00e6 2046     		mov	r0, r4
 247 00e8 FFF7FEFF 		bl	chprintf.constprop.0
 248              	.LVL22:
 249              		.loc 2 111 0 discriminator 1
 250 00ec 0D98     		ldr	r0, [sp, #52]	@ float
 251 00ee FFF7FEFF 		bl	__aeabi_f2d
 252              	.LVL23:
 253 00f2 9DF88030 		ldrb	r3, [sp, #128]	@ zero_extendqisi2
 254 00f6 0A93     		str	r3, [sp, #40]
 255 00f8 0646     		mov	r6, r0
 256 00fa 1298     		ldr	r0, [sp, #72]	@ float
 257 00fc 0F46     		mov	r7, r1
 258 00fe FFF7FEFF 		bl	__aeabi_f2d
 259              	.LVL24:
 260 0102 CDE90801 		strd	r0, [sp, #32]
 261 0106 1198     		ldr	r0, [sp, #68]	@ float
 262 0108 FFF7FEFF 		bl	__aeabi_f2d
 263              	.LVL25:
 264 010c CDE90601 		strd	r0, [sp, #24]
 265 0110 1098     		ldr	r0, [sp, #64]	@ float
 266 0112 FFF7FEFF 		bl	__aeabi_f2d
 267              	.LVL26:
 268 0116 CDE90401 		strd	r0, [sp, #16]
 269 011a 0F98     		ldr	r0, [sp, #60]	@ float
 270 011c FFF7FEFF 		bl	__aeabi_f2d
 271              	.LVL27:
 272 0120 CDE90201 		strd	r0, [sp, #8]
 273 0124 0E98     		ldr	r0, [sp, #56]	@ float
 274 0126 FFF7FEFF 		bl	__aeabi_f2d
 275              	.LVL28:
 276 012a 3246     		mov	r2, r6
 277 012c CDE90001 		strd	r0, [sp]
 278 0130 3B46     		mov	r3, r7
 279 0132 4946     		mov	r1, r9
 280 0134 2046     		mov	r0, r4
 281 0136 FFF7FEFF 		bl	chprintf.constprop.0
 282              	.LVL29:
 283              		.loc 2 117 0 discriminator 1
 284 013a 6420     		movs	r0, #100
 285 013c FFF7FEFF 		bl	chThdSleep
ARM GAS  /var/folders/lm/0cn7d9cx3675ck1h97jhfmgw0000gn/T//ccAdgGiG.s 			page 6


 286              	.LVL30:
 287 0140 91E7     		b	.L9
 288              	.L13:
 289 0142 00BF     		.align	2
 290              	.L12:
 291 0144 00000000 		.word	__stack_chk_guard
 292 0148 00000000 		.word	SD3
 293 014c 08000000 		.word	.LC1
 294 0150 00000000 		.word	.LANCHOR0
 295 0154 00000000 		.word	GPTD12
 296 0158 00000000 		.word	.LANCHOR1
 297 015c 00000000 		.word	.LANCHOR2
 298 0160 00000000 		.word	.LANCHOR3
 299 0164 00000000 		.word	.LANCHOR4
 300 0168 00000000 		.word	.LC0
 301 016c 3C000000 		.word	.LC2
 302              		.cfi_endproc
 303              	.LFE262:
 304              		.size	main, .-main
 305              		.section	.text.__stack_chk_fail,"ax",%progbits
 306              		.align	1
 307              		.p2align 4,,15
 308              		.global	__stack_chk_fail
 309              		.syntax unified
 310              		.thumb
 311              		.thumb_func
 312              		.fpu fpv4-sp-d16
 313              		.type	__stack_chk_fail, %function
 314              	__stack_chk_fail:
 315              	.LFB263:
 316              		.loc 2 126 0
 317              		.cfi_startproc
 318              		@ args = 0, pretend = 0, frame = 8
 319              		@ frame_needed = 0, uses_anonymous_args = 0
 320 0000 00B5     		push	{lr}
 321              		.cfi_def_cfa_offset 4
 322              		.cfi_offset 14, -4
 323 0002 084B     		ldr	r3, .L19
 324 0004 83B0     		sub	sp, sp, #12
 325              		.cfi_def_cfa_offset 16
 326              		.loc 2 126 0
 327 0006 1A68     		ldr	r2, [r3]
 328 0008 0192     		str	r2, [sp, #4]
 329              		.loc 2 127 0
 330 000a 019A     		ldr	r2, [sp, #4]
 331 000c 1B68     		ldr	r3, [r3]
 332 000e 9A42     		cmp	r2, r3
 333 0010 05D1     		bne	.L18
 334 0012 0548     		ldr	r0, .L19+4
 335              		.loc 2 128 0
 336 0014 03B0     		add	sp, sp, #12
 337              		.cfi_remember_state
 338              		.cfi_def_cfa_offset 4
 339              		@ sp needed
 340 0016 5DF804EB 		ldr	lr, [sp], #4
 341              		.cfi_restore 14
 342              		.cfi_def_cfa_offset 0
ARM GAS  /var/folders/lm/0cn7d9cx3675ck1h97jhfmgw0000gn/T//ccAdgGiG.s 			page 7


 343              		.loc 2 127 0
 344 001a FFF7FEBF 		b	chSysHalt
 345              	.LVL31:
 346              	.L18:
 347              		.cfi_restore_state
 348 001e FFF7FEFF 		bl	__stack_chk_fail
 349              	.LVL32:
 350              	.L20:
 351 0022 00BF     		.align	2
 352              	.L19:
 353 0024 00000000 		.word	__stack_chk_guard
 354 0028 00000000 		.word	.LC3
 355              		.cfi_endproc
 356              	.LFE263:
 357              		.size	__stack_chk_fail, .-__stack_chk_fail
 358              		.global	__stack_chk_guard
 359              		.global	bus_condvar
 360              		.global	bus_lock
 361              		.global	bus
 362              		.section	.bss.bus,"aw",%nobits
 363              		.align	2
 364              		.set	.LANCHOR4,. + 0
 365              		.type	bus, %object
 366              		.size	bus, 12
 367              	bus:
 368 0000 00000000 		.space	12
 368      00000000 
 368      00000000 
 369              		.section	.data.__stack_chk_guard,"aw",%progbits
 370              		.align	2
 371              		.type	__stack_chk_guard, %object
 372              		.size	__stack_chk_guard, 4
 373              	__stack_chk_guard:
 374 0000 96E3DEE2 		.word	-488709226
 375              		.section	.data.bus_condvar,"aw",%progbits
 376              		.align	2
 377              		.set	.LANCHOR2,. + 0
 378              		.type	bus_condvar, %object
 379              		.size	bus_condvar, 8
 380              	bus_condvar:
 381 0000 00000000 		.word	bus_condvar
 382 0004 00000000 		.word	bus_condvar
 383              		.section	.data.bus_lock,"aw",%progbits
 384              		.align	2
 385              		.set	.LANCHOR3,. + 0
 386              		.type	bus_lock, %object
 387              		.size	bus_lock, 20
 388              	bus_lock:
 389 0000 00000000 		.word	bus_lock
 390 0004 00000000 		.word	bus_lock
 391 0008 00000000 		.word	0
 392 000c 00000000 		.word	0
 393 0010 00000000 		.word	0
 394              		.section	.data.ser_cfg.12793,"aw",%progbits
 395              		.align	2
 396              		.set	.LANCHOR1,. + 0
 397              		.type	ser_cfg.12793, %object
ARM GAS  /var/folders/lm/0cn7d9cx3675ck1h97jhfmgw0000gn/T//ccAdgGiG.s 			page 8


 398              		.size	ser_cfg.12793, 12
 399              	ser_cfg.12793:
 400 0000 00C20100 		.word	115200
 401 0004 0000     		.short	0
 402 0006 0000     		.short	0
 403 0008 0000     		.short	0
 404 000a 0000     		.space	2
 405              		.section	.rodata.__stack_chk_fail.str1.4,"aMS",%progbits,1
 406              		.align	2
 407              	.LC3:
 408 0000 53746163 		.ascii	"Stack smashing detected\000"
 408      6B20736D 
 408      61736869 
 408      6E672064 
 408      65746563 
 409              		.section	.rodata.gpt12cfg.12797,"a",%progbits
 410              		.align	2
 411              		.set	.LANCHOR0,. + 0
 412              		.type	gpt12cfg.12797, %object
 413              		.size	gpt12cfg.12797, 16
 414              	gpt12cfg.12797:
 415 0000 40420F00 		.word	1000000
 416 0004 00000000 		.word	0
 417 0008 00000000 		.word	0
 418 000c 00000000 		.word	0
 419              		.section	.rodata.main.str1.4,"aMS",%progbits,1
 420              		.align	2
 421              	.LC0:
 422 0000 2F696D75 		.ascii	"/imu\000"
 422      00
 423 0005 000000   		.space	3
 424              	.LC1:
 425 0008 2541783D 		.ascii	"%Ax=%-7d Ay=%-7d Az=%-7d Gx=%-7d Gy=%-7d Gz=%-7d\015"
 425      252D3764 
 425      2041793D 
 425      252D3764 
 425      20417A3D 
 426 0039 0A00     		.ascii	"\012\000"
 427 003b 00       		.space	1
 428              	.LC2:
 429 003c 2541783D 		.ascii	"%Ax=%.2f Ay=%.2f Az=%.2f Gx=%.2f Gy=%.2f Gz=%.2f (%"
 429      252E3266 
 429      2041793D 
 429      252E3266 
 429      20417A3D 
 430 006f 78290D0A 		.ascii	"x)\015\012\012\000"
 430      0A00
 431              		.text
 432              	.Letext0:
 433              		.file 3 "/Users/jonathanwei/Desktop/Robotique/Tools/gcc-arm-none-eabi-7-2017-q4-major/arm-none-eab
 434              		.file 4 "/Users/jonathanwei/Desktop/Robotique/Tools/gcc-arm-none-eabi-7-2017-q4-major/lib/gcc/arm-
 435              		.file 5 "/Users/jonathanwei/Desktop/Robotique/Tools/gcc-arm-none-eabi-7-2017-q4-major/lib/gcc/arm-
 436              		.file 6 "/Users/jonathanwei/Desktop/Robotique/Tools/gcc-arm-none-eabi-7-2017-q4-major/arm-none-eab
 437              		.file 7 "/Users/jonathanwei/Desktop/Robotique/Tools/gcc-arm-none-eabi-7-2017-q4-major/arm-none-eab
 438              		.file 8 "/Users/jonathanwei/Desktop/Robotique/Tools/gcc-arm-none-eabi-7-2017-q4-major/arm-none-eab
 439              		.file 9 "/Users/jonathanwei/Desktop/Robotique/Tools/gcc-arm-none-eabi-7-2017-q4-major/arm-none-eab
 440              		.file 10 "<built-in>"
ARM GAS  /var/folders/lm/0cn7d9cx3675ck1h97jhfmgw0000gn/T//ccAdgGiG.s 			page 9


 441              		.file 11 "/Users/jonathanwei/Desktop/Robotique/Tools/gcc-arm-none-eabi-7-2017-q4-major/arm-none-ea
 442              		.file 12 "/Users/jonathanwei/Desktop/Robotique/Tools/gcc-arm-none-eabi-7-2017-q4-major/arm-none-ea
 443              		.file 13 "../../lib/e-puck2_main-processor/ChibiOS//os/rt/ports/ARMCMx/compilers/GCC/chtypes.h"
 444              		.file 14 "../../lib/e-puck2_main-processor/ChibiOS//os/rt/include/chsystypes.h"
 445              		.file 15 "../../lib/e-puck2_main-processor/ChibiOS//os/rt/include/chschd.h"
 446              		.file 16 "../../lib/e-puck2_main-processor/ChibiOS//os/ext/CMSIS/include/core_cm4.h"
 447              		.file 17 "../../lib/e-puck2_main-processor/ChibiOS//os/ext/CMSIS/ST/system_stm32f4xx.h"
 448              		.file 18 "../../lib/e-puck2_main-processor/ChibiOS//os/ext/CMSIS/ST/stm32f407xx.h"
 449              		.file 19 "../../lib/e-puck2_main-processor/ChibiOS//os/rt/ports/ARMCMx/chcore.h"
 450              		.file 20 "../../lib/e-puck2_main-processor/ChibiOS//os/rt/ports/ARMCMx/chcore_v7m.h"
 451              		.file 21 "../../lib/e-puck2_main-processor/ChibiOS//os/rt/include/chdebug.h"
 452              		.file 22 "../../lib/e-puck2_main-processor/ChibiOS//os/rt/include/chtm.h"
 453              		.file 23 "../../lib/e-puck2_main-processor/ChibiOS//os/rt/include/chstats.h"
 454              		.file 24 "../../lib/e-puck2_main-processor/ChibiOS//os/rt/include/chsem.h"
 455              		.file 25 "../../lib/e-puck2_main-processor/ChibiOS//os/rt/include/chmtx.h"
 456              		.file 26 "../../lib/e-puck2_main-processor/ChibiOS//os/rt/include/chregistry.h"
 457              		.file 27 "../../lib/e-puck2_main-processor/ChibiOS//os/rt/include/chcond.h"
 458              		.file 28 "../../lib/e-puck2_main-processor/ChibiOS//os/rt/include/chevents.h"
 459              		.file 29 "../../lib/e-puck2_main-processor/ChibiOS//os/rt/include/chqueues.h"
 460              		.file 30 "../../lib/e-puck2_main-processor/ChibiOS//os/rt/include/chstreams.h"
 461              		.file 31 "../../lib/e-puck2_main-processor/ChibiOS//os/hal/ports/STM32/STM32F4xx/stm32_dma.h"
 462              		.file 32 "../../lib/e-puck2_main-processor/ChibiOS//os/hal/include/hal_ioblock.h"
 463              		.file 33 "../../lib/e-puck2_main-processor/ChibiOS//os/hal/ports/STM32/LLD/GPIOv2/pal_lld.h"
 464              		.file 34 "../../lib/e-puck2_main-processor/ChibiOS//os/hal/include/adc.h"
 465              		.file 35 "../../lib/e-puck2_main-processor/ChibiOS//os/hal/ports/STM32/STM32F4xx/adc_lld.h"
 466              		.file 36 "../../lib/e-puck2_main-processor/ChibiOS//os/hal/include/can.h"
 467              		.file 37 "../../lib/e-puck2_main-processor/ChibiOS//os/hal/ports/STM32/LLD/can_lld.h"
 468              		.file 38 "../../lib/e-puck2_main-processor/ChibiOS//os/hal/include/dac.h"
 469              		.file 39 "../../lib/e-puck2_main-processor/ChibiOS//os/hal/ports/STM32/LLD/DACv1/dac_lld.h"
 470              		.file 40 "../../lib/e-puck2_main-processor/ChibiOS//os/hal/include/ext.h"
 471              		.file 41 "../../lib/e-puck2_main-processor/ChibiOS//os/hal/ports/STM32/LLD/ext_lld.h"
 472              		.file 42 "../../lib/e-puck2_main-processor/ChibiOS//os/hal/include/gpt.h"
 473              		.file 43 "../../lib/e-puck2_main-processor/ChibiOS//os/hal/ports/STM32/LLD/TIMv1/gpt_lld.h"
 474              		.file 44 "../../lib/e-puck2_main-processor/ChibiOS//os/hal/ports/STM32/LLD/TIMv1/stm32_tim.h"
 475              		.file 45 "../../lib/e-puck2_main-processor/ChibiOS//os/hal/include/i2c.h"
 476              		.file 46 "../../lib/e-puck2_main-processor/ChibiOS//os/hal/ports/STM32/LLD/I2Cv1/i2c_lld.h"
 477              		.file 47 "../../lib/e-puck2_main-processor/ChibiOS//os/hal/include/i2s.h"
 478              		.file 48 "../../lib/e-puck2_main-processor/ChibiOS//os/hal/ports/STM32/LLD/SPIv1/i2s_lld.h"
 479              		.file 49 "../../lib/e-puck2_main-processor/ChibiOS//os/hal/include/pwm.h"
 480              		.file 50 "../../lib/e-puck2_main-processor/ChibiOS//os/hal/ports/STM32/LLD/TIMv1/pwm_lld.h"
 481              		.file 51 "../../lib/e-puck2_main-processor/ChibiOS//os/hal/include/serial.h"
 482              		.file 52 "../../lib/e-puck2_main-processor/ChibiOS//os/hal/ports/STM32/LLD/USARTv1/serial_lld.h"
 483              		.file 53 "../../lib/e-puck2_main-processor/ChibiOS//os/hal/include/sdc.h"
 484              		.file 54 "../../lib/e-puck2_main-processor/ChibiOS//os/hal/ports/STM32/LLD/sdc_lld.h"
 485              		.file 55 "../../lib/e-puck2_main-processor/ChibiOS//os/hal/include/spi.h"
 486              		.file 56 "../../lib/e-puck2_main-processor/ChibiOS//os/hal/ports/STM32/LLD/SPIv1/spi_lld.h"
 487              		.file 57 "../../lib/e-puck2_main-processor/ChibiOS//os/hal/include/usb.h"
 488              		.file 58 "../../lib/e-puck2_main-processor/ChibiOS//os/hal/ports/STM32/LLD/OTGv1/usb_lld.h"
 489              		.file 59 "../../lib/e-puck2_main-processor/ChibiOS//os/hal/ports/STM32/LLD/OTGv1/stm32_otg.h"
 490              		.file 60 "../../lib/e-puck2_main-processor/ChibiOS//os/hal/include/serial_usb.h"
 491              		.file 61 "../../lib/e-puck2_main-processor/src/usbcfg.h"
 492              		.file 62 "/Users/jonathanwei/Desktop/Robotique/Tools/gcc-arm-none-eabi-7-2017-q4-major/arm-none-ea
 493              		.file 63 "../../lib/e-puck2_main-processor/src/msgbus/messagebus.h"
 494              		.file 64 "../../lib/e-puck2_main-processor/src/parameter/parameter.h"
 495              		.file 65 "./main.h"
 496              		.file 66 "../../lib/e-puck2_main-processor/src/sensors/mpu9250.h"
 497              		.file 67 "../../lib/e-puck2_main-processor/src/sensors/imu.h"
ARM GAS  /var/folders/lm/0cn7d9cx3675ck1h97jhfmgw0000gn/T//ccAdgGiG.s 			page 10


 498              		.file 68 "../../lib/e-puck2_main-processor/ChibiOS//os/rt/include/chsys.h"
 499              		.file 69 "../../lib/e-puck2_main-processor/src/motors.h"
 500              		.file 70 "../../lib/e-puck2_main-processor/ChibiOS//os/hal/include/hal.h"
 501              		.file 71 "../../lib/e-puck2_main-processor/src/i2c_bus.h"
 502              		.file 72 "../../lib/e-puck2_main-processor/src/sensors/VL53L0X/VL53L0X.h"
 503              		.file 73 "../../lib/e-puck2_main-processor/ChibiOS//os/rt/include/chthreads.h"