ARM GAS  /var/folders/rv/m1ccwdpx5lz8hgtj5gzs6dn40000gn/T//ccyJVOxo.s 			page 1


   1              		.cpu cortex-m4
   2              		.eabi_attribute 27, 1
   3              		.eabi_attribute 28, 1
   4              		.eabi_attribute 20, 1
   5              		.eabi_attribute 21, 1
   6              		.eabi_attribute 23, 3
   7              		.eabi_attribute 24, 1
   8              		.eabi_attribute 25, 1
   9              		.eabi_attribute 26, 1
  10              		.eabi_attribute 30, 2
  11              		.eabi_attribute 34, 1
  12              		.eabi_attribute 18, 4
  13              		.file	"mpu9250.c"
  14              		.text
  15              	.Ltext0:
  16              		.cfi_sections	.debug_frame
  17              		.section	.text.mpu9250_change_addr,"ax",%progbits
  18              		.align	1
  19              		.p2align 4,,15
  20              		.global	mpu9250_change_addr
  21              		.syntax unified
  22              		.thumb
  23              		.thumb_func
  24              		.fpu fpv4-sp-d16
  25              		.type	mpu9250_change_addr, %function
  26              	mpu9250_change_addr:
  27              	.LFB256:
  28              		.file 1 "mpu9250.c"
  29              		.loc 1 10 0
  30              		.cfi_startproc
  31              		@ args = 0, pretend = 0, frame = 8
  32              		@ frame_needed = 0, uses_anonymous_args = 0
  33 0000 00B5     		push	{lr}
  34              		.cfi_def_cfa_offset 4
  35              		.cfi_offset 14, -4
  36              		.loc 1 11 0
  37 0002 0A4A     		ldr	r2, .L8
  38              		.loc 1 10 0
  39 0004 0A4B     		ldr	r3, .L8+4
  40              		.loc 1 11 0
  41 0006 1178     		ldrb	r1, [r2]	@ zero_extendqisi2
  42              		.loc 1 10 0
  43 0008 1868     		ldr	r0, [r3]
  44 000a 83B0     		sub	sp, sp, #12
  45              		.cfi_def_cfa_offset 16
  46              		.loc 1 11 0
  47 000c 6829     		cmp	r1, #104
  48              		.loc 1 10 0
  49 000e 0190     		str	r0, [sp, #4]
  50              		.loc 1 12 0
  51 0010 0CBF     		ite	eq
  52 0012 6921     		moveq	r1, #105
  53              		.loc 1 14 0
  54 0014 6821     		movne	r1, #104
  55 0016 1170     		strb	r1, [r2]
  56              		.loc 1 16 0
  57 0018 019A     		ldr	r2, [sp, #4]
ARM GAS  /var/folders/rv/m1ccwdpx5lz8hgtj5gzs6dn40000gn/T//ccyJVOxo.s 			page 2


  58 001a 1B68     		ldr	r3, [r3]
  59 001c 9A42     		cmp	r2, r3
  60 001e 02D1     		bne	.L7
  61 0020 03B0     		add	sp, sp, #12
  62              		.cfi_remember_state
  63              		.cfi_def_cfa_offset 4
  64              		@ sp needed
  65 0022 5DF804FB 		ldr	pc, [sp], #4
  66              	.L7:
  67              		.cfi_restore_state
  68 0026 FFF7FEFF 		bl	__stack_chk_fail
  69              	.LVL0:
  70              	.L9:
  71 002a 00BF     		.align	2
  72              	.L8:
  73 002c 00000000 		.word	.LANCHOR0
  74 0030 00000000 		.word	__stack_chk_guard
  75              		.cfi_endproc
  76              	.LFE256:
  77              		.size	mpu9250_change_addr, .-mpu9250_change_addr
  78              		.section	.text.mpu9250_read_id,"ax",%progbits
  79              		.align	1
  80              		.p2align 4,,15
  81              		.global	mpu9250_read_id
  82              		.syntax unified
  83              		.thumb
  84              		.thumb_func
  85              		.fpu fpv4-sp-d16
  86              		.type	mpu9250_read_id, %function
  87              	mpu9250_read_id:
  88              	.LFB257:
  89              		.loc 1 27 0
  90              		.cfi_startproc
  91              		@ args = 0, pretend = 0, frame = 8
  92              		@ frame_needed = 0, uses_anonymous_args = 0
  93              	.LVL1:
  94 0000 70B5     		push	{r4, r5, r6, lr}
  95              		.cfi_def_cfa_offset 16
  96              		.cfi_offset 4, -16
  97              		.cfi_offset 5, -12
  98              		.cfi_offset 6, -8
  99              		.cfi_offset 14, -4
 100 0002 124D     		ldr	r5, .L18
 101              		.loc 1 29 0
 102 0004 124C     		ldr	r4, .L18+4
 103              		.loc 1 27 0
 104 0006 2B68     		ldr	r3, [r5]
 105 0008 82B0     		sub	sp, sp, #8
 106              		.cfi_def_cfa_offset 24
 107              		.loc 1 27 0
 108 000a 0646     		mov	r6, r0
 109              		.loc 1 29 0
 110 000c 0246     		mov	r2, r0
 111 000e 7521     		movs	r1, #117
 112 0010 2078     		ldrb	r0, [r4]	@ zero_extendqisi2
 113              	.LVL2:
 114              		.loc 1 27 0
ARM GAS  /var/folders/rv/m1ccwdpx5lz8hgtj5gzs6dn40000gn/T//ccyJVOxo.s 			page 3


 115 0012 0193     		str	r3, [sp, #4]
 116              	.LVL3:
 117              		.loc 1 29 0
 118 0014 FFF7FEFF 		bl	read_reg
 119              	.LVL4:
 120 0018 80B1     		cbz	r0, .L11
 121              	.LVL5:
 122              	.LBB50:
 123              	.LBB51:
 124              	.LBB52:
 125              	.LBB53:
 126              		.loc 1 11 0
 127 001a 2378     		ldrb	r3, [r4]	@ zero_extendqisi2
 128              	.LBE53:
 129              	.LBE52:
 130              		.loc 1 31 0
 131 001c 019A     		ldr	r2, [sp, #4]
 132              	.LBB57:
 133              	.LBB54:
 134              		.loc 1 11 0
 135 001e 682B     		cmp	r3, #104
 136              	.LBE54:
 137              	.LBE57:
 138              		.loc 1 31 0
 139 0020 2B68     		ldr	r3, [r5]
 140              	.LBB58:
 141              	.LBB55:
 142              		.loc 1 12 0
 143 0022 0CBF     		ite	eq
 144 0024 6920     		moveq	r0, #105
 145              	.LVL6:
 146              		.loc 1 14 0
 147 0026 6820     		movne	r0, #104
 148              	.LBE55:
 149              	.LBE58:
 150              		.loc 1 31 0
 151 0028 9A42     		cmp	r2, r3
 152              	.LBB59:
 153              	.LBB56:
 154              		.loc 1 14 0
 155 002a 2070     		strb	r0, [r4]
 156              	.LBE56:
 157              	.LBE59:
 158              		.loc 1 31 0
 159 002c 0CD1     		bne	.L17
 160 002e 3246     		mov	r2, r6
 161 0030 7521     		movs	r1, #117
 162              	.LBE51:
 163              	.LBE50:
 164              		.loc 1 36 0
 165 0032 02B0     		add	sp, sp, #8
 166              		.cfi_remember_state
 167              		.cfi_def_cfa_offset 16
 168              		@ sp needed
 169 0034 BDE87040 		pop	{r4, r5, r6, lr}
 170              		.cfi_restore 14
 171              		.cfi_restore 6
ARM GAS  /var/folders/rv/m1ccwdpx5lz8hgtj5gzs6dn40000gn/T//ccyJVOxo.s 			page 4


 172              		.cfi_restore 5
 173              		.cfi_restore 4
 174              		.cfi_def_cfa_offset 0
 175              	.LVL7:
 176              	.LBB61:
 177              	.LBB60:
 178              		.loc 1 31 0
 179 0038 FFF7FEBF 		b	read_reg
 180              	.LVL8:
 181              	.L11:
 182              		.cfi_restore_state
 183              	.LBE60:
 184              	.LBE61:
 185              		.loc 1 36 0
 186 003c 019A     		ldr	r2, [sp, #4]
 187 003e 2B68     		ldr	r3, [r5]
 188 0040 9A42     		cmp	r2, r3
 189 0042 01D1     		bne	.L17
 190 0044 02B0     		add	sp, sp, #8
 191              		.cfi_remember_state
 192              		.cfi_def_cfa_offset 16
 193              		@ sp needed
 194 0046 70BD     		pop	{r4, r5, r6, pc}
 195              	.LVL9:
 196              	.L17:
 197              		.cfi_restore_state
 198 0048 FFF7FEFF 		bl	__stack_chk_fail
 199              	.LVL10:
 200              	.L19:
 201              		.align	2
 202              	.L18:
 203 004c 00000000 		.word	__stack_chk_guard
 204 0050 00000000 		.word	.LANCHOR0
 205              		.cfi_endproc
 206              	.LFE257:
 207              		.size	mpu9250_read_id, .-mpu9250_read_id
 208              		.section	.text.mpu9250_setup,"ax",%progbits
 209              		.align	1
 210              		.p2align 4,,15
 211              		.global	mpu9250_setup
 212              		.syntax unified
 213              		.thumb
 214              		.thumb_func
 215              		.fpu fpv4-sp-d16
 216              		.type	mpu9250_setup, %function
 217              	mpu9250_setup:
 218              	.LFB259:
 219              		.loc 1 55 0
 220              		.cfi_startproc
 221              		@ args = 0, pretend = 0, frame = 8
 222              		@ frame_needed = 0, uses_anonymous_args = 0
 223              	.LVL11:
 224 0000 F0B5     		push	{r4, r5, r6, r7, lr}
 225              		.cfi_def_cfa_offset 20
 226              		.cfi_offset 4, -20
 227              		.cfi_offset 5, -16
 228              		.cfi_offset 6, -12
ARM GAS  /var/folders/rv/m1ccwdpx5lz8hgtj5gzs6dn40000gn/T//ccyJVOxo.s 			page 5


 229              		.cfi_offset 7, -8
 230              		.cfi_offset 14, -4
 231 0002 504D     		ldr	r5, .L56
 232              		.loc 1 62 0
 233 0004 504C     		ldr	r4, .L56+4
 234              		.loc 1 55 0
 235 0006 2B68     		ldr	r3, [r5]
 236 0008 83B0     		sub	sp, sp, #12
 237              		.cfi_def_cfa_offset 32
 238              		.loc 1 55 0
 239 000a 0746     		mov	r7, r0
 240 000c 0193     		str	r3, [sp, #4]
 241              	.LVL12:
 242              		.loc 1 62 0
 243 000e 2078     		ldrb	r0, [r4]	@ zero_extendqisi2
 244              	.LVL13:
 245              		.loc 1 57 0
 246 0010 0023     		movs	r3, #0
 247              		.loc 1 62 0
 248 0012 8022     		movs	r2, #128
 249 0014 6B21     		movs	r1, #107
 250              		.loc 1 57 0
 251 0016 8DF80330 		strb	r3, [sp, #3]
 252              		.loc 1 62 0
 253 001a FFF7FEFF 		bl	write_reg
 254              	.LVL14:
 255 001e 58B1     		cbz	r0, .L26
 256              	.LBB62:
 257              	.LBB63:
 258              		.loc 1 11 0
 259 0020 2378     		ldrb	r3, [r4]	@ zero_extendqisi2
 260 0022 682B     		cmp	r3, #104
 261              		.loc 1 12 0
 262 0024 0CBF     		ite	eq
 263 0026 6920     		moveq	r0, #105
 264              	.LVL15:
 265              		.loc 1 14 0
 266 0028 6820     		movne	r0, #104
 267              	.LBE63:
 268              	.LBE62:
 269              		.loc 1 64 0
 270 002a 8022     		movs	r2, #128
 271 002c 6B21     		movs	r1, #107
 272              	.LBB65:
 273              	.LBB64:
 274              		.loc 1 14 0
 275 002e 2070     		strb	r0, [r4]
 276              	.LBE64:
 277              	.LBE65:
 278              		.loc 1 64 0
 279 0030 FFF7FEFF 		bl	write_reg
 280              	.LVL16:
 281 0034 0028     		cmp	r0, #0
 282 0036 7CD1     		bne	.L25
 283              	.L26:
 284              		.loc 1 68 0
 285 0038 0120     		movs	r0, #1
ARM GAS  /var/folders/rv/m1ccwdpx5lz8hgtj5gzs6dn40000gn/T//ccyJVOxo.s 			page 6


 286              	.LVL17:
 287 003a FFF7FEFF 		bl	chThdSleep
 288              	.LVL18:
 289              	.LBB66:
 290              	.LBB67:
 291              		.loc 1 14 0
 292 003e 6826     		movs	r6, #104
 293 0040 02E0     		b	.L22
 294              	.LVL19:
 295              	.L53:
 296              	.LBE67:
 297              	.LBE66:
 298              		.loc 1 79 0
 299 0042 0120     		movs	r0, #1
 300              	.LVL20:
 301 0044 FFF7FEFF 		bl	chThdSleep
 302              	.LVL21:
 303              	.L22:
 304              		.loc 1 70 0
 305 0048 0DF10302 		add	r2, sp, #3
 306 004c 6B21     		movs	r1, #107
 307 004e 2078     		ldrb	r0, [r4]	@ zero_extendqisi2
 308 0050 FFF7FEFF 		bl	read_reg
 309              	.LVL22:
 310 0054 78B1     		cbz	r0, .L32
 311              	.LBB70:
 312              	.LBB68:
 313              		.loc 1 11 0
 314 0056 2378     		ldrb	r3, [r4]	@ zero_extendqisi2
 315 0058 682B     		cmp	r3, #104
 316              		.loc 1 12 0
 317 005a 0CBF     		ite	eq
 318 005c 6920     		moveq	r0, #105
 319              	.LVL23:
 320              		.loc 1 14 0
 321 005e 6820     		movne	r0, #104
 322              	.LBE68:
 323              	.LBE70:
 324              		.loc 1 72 0
 325 0060 0DF10302 		add	r2, sp, #3
 326 0064 4FF06B01 		mov	r1, #107
 327              	.LBB71:
 328              	.LBB69:
 329              		.loc 1 12 0
 330 0068 0CBF     		ite	eq
 331 006a 2070     		strbeq	r0, [r4]
 332              		.loc 1 14 0
 333 006c 2670     		strbne	r6, [r4]
 334              	.LBE69:
 335              	.LBE71:
 336              		.loc 1 72 0
 337 006e FFF7FEFF 		bl	read_reg
 338              	.LVL24:
 339 0072 0028     		cmp	r0, #0
 340 0074 5DD1     		bne	.L25
 341              	.L32:
 342              		.loc 1 76 0
ARM GAS  /var/folders/rv/m1ccwdpx5lz8hgtj5gzs6dn40000gn/T//ccyJVOxo.s 			page 7


 343 0076 9DF90330 		ldrsb	r3, [sp, #3]
 344 007a 002B     		cmp	r3, #0
 345 007c E1DB     		blt	.L53
 346              		.loc 1 83 0
 347 007e 7E00     		lsls	r6, r7, #1
 348 0080 06F01806 		and	r6, r6, #24
 349 0084 3246     		mov	r2, r6
 350 0086 1B21     		movs	r1, #27
 351 0088 2078     		ldrb	r0, [r4]	@ zero_extendqisi2
 352              	.LVL25:
 353 008a FFF7FEFF 		bl	write_reg
 354              	.LVL26:
 355 008e 58B1     		cbz	r0, .L38
 356              	.LBB72:
 357              	.LBB73:
 358              		.loc 1 11 0
 359 0090 2378     		ldrb	r3, [r4]	@ zero_extendqisi2
 360 0092 682B     		cmp	r3, #104
 361              		.loc 1 12 0
 362 0094 0CBF     		ite	eq
 363 0096 6920     		moveq	r0, #105
 364              	.LVL27:
 365              		.loc 1 14 0
 366 0098 6820     		movne	r0, #104
 367              	.LBE73:
 368              	.LBE72:
 369              		.loc 1 85 0
 370 009a 3246     		mov	r2, r6
 371 009c 1B21     		movs	r1, #27
 372              	.LBB75:
 373              	.LBB74:
 374              		.loc 1 14 0
 375 009e 2070     		strb	r0, [r4]
 376              	.LBE74:
 377              	.LBE75:
 378              		.loc 1 85 0
 379 00a0 FFF7FEFF 		bl	write_reg
 380              	.LVL28:
 381 00a4 0028     		cmp	r0, #0
 382 00a6 44D1     		bne	.L25
 383              	.L38:
 384              		.loc 1 92 0
 385 00a8 FE00     		lsls	r6, r7, #3
 386              		.loc 1 89 0
 387 00aa 0120     		movs	r0, #1
 388              	.LVL29:
 389              		.loc 1 92 0
 390 00ac 06F01806 		and	r6, r6, #24
 391              		.loc 1 89 0
 392 00b0 FFF7FEFF 		bl	chThdSleep
 393              	.LVL30:
 394              		.loc 1 92 0
 395 00b4 3246     		mov	r2, r6
 396 00b6 1C21     		movs	r1, #28
 397 00b8 2078     		ldrb	r0, [r4]	@ zero_extendqisi2
 398 00ba FFF7FEFF 		bl	write_reg
 399              	.LVL31:
ARM GAS  /var/folders/rv/m1ccwdpx5lz8hgtj5gzs6dn40000gn/T//ccyJVOxo.s 			page 8


 400 00be 50B1     		cbz	r0, .L35
 401              	.LBB76:
 402              	.LBB77:
 403              		.loc 1 11 0
 404 00c0 2378     		ldrb	r3, [r4]	@ zero_extendqisi2
 405 00c2 682B     		cmp	r3, #104
 406              		.loc 1 12 0
 407 00c4 0CBF     		ite	eq
 408 00c6 6920     		moveq	r0, #105
 409              	.LVL32:
 410              		.loc 1 14 0
 411 00c8 6820     		movne	r0, #104
 412              	.LBE77:
 413              	.LBE76:
 414              		.loc 1 94 0
 415 00ca 3246     		mov	r2, r6
 416 00cc 1C21     		movs	r1, #28
 417              	.LBB79:
 418              	.LBB78:
 419              		.loc 1 14 0
 420 00ce 2070     		strb	r0, [r4]
 421              	.LBE78:
 422              	.LBE79:
 423              		.loc 1 94 0
 424 00d0 FFF7FEFF 		bl	write_reg
 425              	.LVL33:
 426 00d4 68BB     		cbnz	r0, .L25
 427              	.L35:
 428              		.loc 1 98 0
 429 00d6 0120     		movs	r0, #1
 430              	.LVL34:
 431              		.loc 1 101 0
 432 00d8 C7F30727 		ubfx	r7, r7, #8, #8
 433              	.LVL35:
 434              		.loc 1 98 0
 435 00dc FFF7FEFF 		bl	chThdSleep
 436              	.LVL36:
 437              		.loc 1 101 0
 438 00e0 3A46     		mov	r2, r7
 439 00e2 1921     		movs	r1, #25
 440 00e4 2078     		ldrb	r0, [r4]	@ zero_extendqisi2
 441 00e6 FFF7FEFF 		bl	write_reg
 442              	.LVL37:
 443 00ea 50B1     		cbz	r0, .L40
 444              	.LBB80:
 445              	.LBB81:
 446              		.loc 1 11 0
 447 00ec 2378     		ldrb	r3, [r4]	@ zero_extendqisi2
 448 00ee 682B     		cmp	r3, #104
 449              		.loc 1 12 0
 450 00f0 0CBF     		ite	eq
 451 00f2 6920     		moveq	r0, #105
 452              	.LVL38:
 453              		.loc 1 14 0
 454 00f4 6820     		movne	r0, #104
 455              	.LBE81:
 456              	.LBE80:
ARM GAS  /var/folders/rv/m1ccwdpx5lz8hgtj5gzs6dn40000gn/T//ccyJVOxo.s 			page 9


 457              		.loc 1 103 0
 458 00f6 3A46     		mov	r2, r7
 459 00f8 1921     		movs	r1, #25
 460              	.LBB83:
 461              	.LBB82:
 462              		.loc 1 14 0
 463 00fa 2070     		strb	r0, [r4]
 464              	.LBE82:
 465              	.LBE83:
 466              		.loc 1 103 0
 467 00fc FFF7FEFF 		bl	write_reg
 468              	.LVL39:
 469 0100 B8B9     		cbnz	r0, .L25
 470              	.L40:
 471              		.loc 1 107 0
 472 0102 0120     		movs	r0, #1
 473              	.LVL40:
 474 0104 FFF7FEFF 		bl	chThdSleep
 475              	.LVL41:
 476              		.loc 1 110 0
 477 0108 0122     		movs	r2, #1
 478 010a 3821     		movs	r1, #56
 479 010c 2078     		ldrb	r0, [r4]	@ zero_extendqisi2
 480 010e FFF7FEFF 		bl	write_reg
 481              	.LVL42:
 482 0112 50B1     		cbz	r0, .L44
 483              	.LBB84:
 484              	.LBB85:
 485              		.loc 1 11 0
 486 0114 2378     		ldrb	r3, [r4]	@ zero_extendqisi2
 487 0116 682B     		cmp	r3, #104
 488              		.loc 1 12 0
 489 0118 0CBF     		ite	eq
 490 011a 6920     		moveq	r0, #105
 491              	.LVL43:
 492              		.loc 1 14 0
 493 011c 6820     		movne	r0, #104
 494              	.LBE85:
 495              	.LBE84:
 496              		.loc 1 112 0
 497 011e 0122     		movs	r2, #1
 498 0120 3821     		movs	r1, #56
 499              	.LBB87:
 500              	.LBB86:
 501              		.loc 1 14 0
 502 0122 2070     		strb	r0, [r4]
 503              	.LBE86:
 504              	.LBE87:
 505              		.loc 1 112 0
 506 0124 FFF7FEFF 		bl	write_reg
 507              	.LVL44:
 508 0128 18B9     		cbnz	r0, .L25
 509              	.L44:
 510              	.LVL45:
 511              		.loc 1 116 0
 512 012a 0120     		movs	r0, #1
 513 012c FFF7FEFF 		bl	chThdSleep
ARM GAS  /var/folders/rv/m1ccwdpx5lz8hgtj5gzs6dn40000gn/T//ccyJVOxo.s 			page 10


 514              	.LVL46:
 515              		.loc 1 122 0
 516 0130 0020     		movs	r0, #0
 517              	.LVL47:
 518              	.L25:
 519              		.loc 1 124 0
 520 0132 019A     		ldr	r2, [sp, #4]
 521 0134 2B68     		ldr	r3, [r5]
 522 0136 9A42     		cmp	r2, r3
 523 0138 01D1     		bne	.L55
 524 013a 03B0     		add	sp, sp, #12
 525              		.cfi_remember_state
 526              		.cfi_def_cfa_offset 20
 527              		@ sp needed
 528 013c F0BD     		pop	{r4, r5, r6, r7, pc}
 529              	.L55:
 530              		.cfi_restore_state
 531 013e FFF7FEFF 		bl	__stack_chk_fail
 532              	.LVL48:
 533              	.L57:
 534 0142 00BF     		.align	2
 535              	.L56:
 536 0144 00000000 		.word	__stack_chk_guard
 537 0148 00000000 		.word	.LANCHOR0
 538              		.cfi_endproc
 539              	.LFE259:
 540              		.size	mpu9250_setup, .-mpu9250_setup
 541              		.section	.text.mpu9250_magnetometer_setup,"ax",%progbits
 542              		.align	1
 543              		.p2align 4,,15
 544              		.global	mpu9250_magnetometer_setup
 545              		.syntax unified
 546              		.thumb
 547              		.thumb_func
 548              		.fpu fpv4-sp-d16
 549              		.type	mpu9250_magnetometer_setup, %function
 550              	mpu9250_magnetometer_setup:
 551              	.LFB260:
 552              		.loc 1 126 0
 553              		.cfi_startproc
 554              		@ args = 0, pretend = 0, frame = 8
 555              		@ frame_needed = 0, uses_anonymous_args = 0
 556 0000 70B5     		push	{r4, r5, r6, lr}
 557              		.cfi_def_cfa_offset 16
 558              		.cfi_offset 4, -16
 559              		.cfi_offset 5, -12
 560              		.cfi_offset 6, -8
 561              		.cfi_offset 14, -4
 562 0002 514E     		ldr	r6, .L102
 563              		.loc 1 131 0
 564 0004 514C     		ldr	r4, .L102+4
 565              		.loc 1 126 0
 566 0006 3368     		ldr	r3, [r6]
 567              		.loc 1 131 0
 568 0008 2078     		ldrb	r0, [r4]	@ zero_extendqisi2
 569              		.loc 1 126 0
 570 000a 82B0     		sub	sp, sp, #8
ARM GAS  /var/folders/rv/m1ccwdpx5lz8hgtj5gzs6dn40000gn/T//ccyJVOxo.s 			page 11


 571              		.cfi_def_cfa_offset 24
 572              		.loc 1 131 0
 573 000c 0222     		movs	r2, #2
 574 000e 3721     		movs	r1, #55
 575              		.loc 1 126 0
 576 0010 0193     		str	r3, [sp, #4]
 577              	.LVL49:
 578              		.loc 1 131 0
 579 0012 FFF7FEFF 		bl	write_reg
 580              	.LVL50:
 581 0016 58B1     		cbz	r0, .L64
 582              	.LBB88:
 583              	.LBB89:
 584              		.loc 1 11 0
 585 0018 2378     		ldrb	r3, [r4]	@ zero_extendqisi2
 586 001a 682B     		cmp	r3, #104
 587              		.loc 1 12 0
 588 001c 0CBF     		ite	eq
 589 001e 6920     		moveq	r0, #105
 590              	.LVL51:
 591              		.loc 1 14 0
 592 0020 6820     		movne	r0, #104
 593              	.LBE89:
 594              	.LBE88:
 595              		.loc 1 133 0
 596 0022 0222     		movs	r2, #2
 597 0024 3721     		movs	r1, #55
 598              	.LBB91:
 599              	.LBB90:
 600              		.loc 1 14 0
 601 0026 2070     		strb	r0, [r4]
 602              	.LBE90:
 603              	.LBE91:
 604              		.loc 1 133 0
 605 0028 FFF7FEFF 		bl	write_reg
 606              	.LVL52:
 607 002c 0546     		mov	r5, r0
 608 002e 30B9     		cbnz	r0, .L60
 609              	.L64:
 610              		.loc 1 139 0
 611 0030 1222     		movs	r2, #18
 612 0032 0A21     		movs	r1, #10
 613 0034 0C20     		movs	r0, #12
 614              	.LVL53:
 615 0036 FFF7FEFF 		bl	write_reg
 616              	.LVL54:
 617 003a 0546     		mov	r5, r0
 618 003c 30B1     		cbz	r0, .L100
 619              	.LVL55:
 620              	.L60:
 621              		.loc 1 209 0
 622 003e 019A     		ldr	r2, [sp, #4]
 623 0040 3368     		ldr	r3, [r6]
 624 0042 9A42     		cmp	r2, r3
 625 0044 2846     		mov	r0, r5
 626 0046 7CD1     		bne	.L101
 627 0048 02B0     		add	sp, sp, #8
ARM GAS  /var/folders/rv/m1ccwdpx5lz8hgtj5gzs6dn40000gn/T//ccyJVOxo.s 			page 12


 628              		.cfi_remember_state
 629              		.cfi_def_cfa_offset 16
 630              		@ sp needed
 631 004a 70BD     		pop	{r4, r5, r6, pc}
 632              	.LVL56:
 633              	.L100:
 634              		.cfi_restore_state
 635              		.loc 1 145 0
 636 004c 0246     		mov	r2, r0
 637 004e 3721     		movs	r1, #55
 638 0050 2078     		ldrb	r0, [r4]	@ zero_extendqisi2
 639              	.LVL57:
 640 0052 FFF7FEFF 		bl	write_reg
 641              	.LVL58:
 642 0056 58B1     		cbz	r0, .L70
 643              	.LBB92:
 644              	.LBB93:
 645              		.loc 1 11 0
 646 0058 2378     		ldrb	r3, [r4]	@ zero_extendqisi2
 647 005a 682B     		cmp	r3, #104
 648              		.loc 1 12 0
 649 005c 0CBF     		ite	eq
 650 005e 6920     		moveq	r0, #105
 651              	.LVL59:
 652              		.loc 1 14 0
 653 0060 6820     		movne	r0, #104
 654              	.LBE93:
 655              	.LBE92:
 656              		.loc 1 147 0
 657 0062 0022     		movs	r2, #0
 658 0064 3721     		movs	r1, #55
 659              	.LBB95:
 660              	.LBB94:
 661              		.loc 1 14 0
 662 0066 2070     		strb	r0, [r4]
 663              	.LBE94:
 664              	.LBE95:
 665              		.loc 1 147 0
 666 0068 FFF7FEFF 		bl	write_reg
 667              	.LVL60:
 668 006c 0028     		cmp	r0, #0
 669 006e 66D1     		bne	.L94
 670              	.L70:
 671              		.loc 1 160 0
 672 0070 5D22     		movs	r2, #93
 673 0072 2421     		movs	r1, #36
 674 0074 2078     		ldrb	r0, [r4]	@ zero_extendqisi2
 675              	.LVL61:
 676 0076 FFF7FEFF 		bl	write_reg
 677              	.LVL62:
 678 007a 58B1     		cbz	r0, .L67
 679              	.LBB96:
 680              	.LBB97:
 681              		.loc 1 11 0
 682 007c 2378     		ldrb	r3, [r4]	@ zero_extendqisi2
 683 007e 682B     		cmp	r3, #104
 684              		.loc 1 12 0
ARM GAS  /var/folders/rv/m1ccwdpx5lz8hgtj5gzs6dn40000gn/T//ccyJVOxo.s 			page 13


 685 0080 0CBF     		ite	eq
 686 0082 6920     		moveq	r0, #105
 687              	.LVL63:
 688              		.loc 1 14 0
 689 0084 6820     		movne	r0, #104
 690              	.LBE97:
 691              	.LBE96:
 692              		.loc 1 162 0
 693 0086 5D22     		movs	r2, #93
 694 0088 2421     		movs	r1, #36
 695              	.LBB99:
 696              	.LBB98:
 697              		.loc 1 14 0
 698 008a 2070     		strb	r0, [r4]
 699              	.LBE98:
 700              	.LBE99:
 701              		.loc 1 162 0
 702 008c FFF7FEFF 		bl	write_reg
 703              	.LVL64:
 704 0090 0028     		cmp	r0, #0
 705 0092 54D1     		bne	.L94
 706              	.L67:
 707              		.loc 1 166 0
 708 0094 0120     		movs	r0, #1
 709              	.LVL65:
 710 0096 FFF7FEFF 		bl	chThdSleep
 711              	.LVL66:
 712              		.loc 1 169 0
 713 009a 2022     		movs	r2, #32
 714 009c 6A21     		movs	r1, #106
 715 009e 2078     		ldrb	r0, [r4]	@ zero_extendqisi2
 716 00a0 FFF7FEFF 		bl	write_reg
 717              	.LVL67:
 718 00a4 58B1     		cbz	r0, .L72
 719              	.LBB100:
 720              	.LBB101:
 721              		.loc 1 11 0
 722 00a6 2378     		ldrb	r3, [r4]	@ zero_extendqisi2
 723 00a8 682B     		cmp	r3, #104
 724              		.loc 1 12 0
 725 00aa 0CBF     		ite	eq
 726 00ac 6920     		moveq	r0, #105
 727              	.LVL68:
 728              		.loc 1 14 0
 729 00ae 6820     		movne	r0, #104
 730              	.LBE101:
 731              	.LBE100:
 732              		.loc 1 171 0
 733 00b0 2022     		movs	r2, #32
 734 00b2 6A21     		movs	r1, #106
 735              	.LBB103:
 736              	.LBB102:
 737              		.loc 1 14 0
 738 00b4 2070     		strb	r0, [r4]
 739              	.LBE102:
 740              	.LBE103:
 741              		.loc 1 171 0
ARM GAS  /var/folders/rv/m1ccwdpx5lz8hgtj5gzs6dn40000gn/T//ccyJVOxo.s 			page 14


 742 00b6 FFF7FEFF 		bl	write_reg
 743              	.LVL69:
 744 00ba 0028     		cmp	r0, #0
 745 00bc 3FD1     		bne	.L94
 746              	.L72:
 747              		.loc 1 175 0
 748 00be 0120     		movs	r0, #1
 749              	.LVL70:
 750 00c0 FFF7FEFF 		bl	chThdSleep
 751              	.LVL71:
 752              		.loc 1 178 0
 753 00c4 8C22     		movs	r2, #140
 754 00c6 2521     		movs	r1, #37
 755 00c8 2078     		ldrb	r0, [r4]	@ zero_extendqisi2
 756 00ca FFF7FEFF 		bl	write_reg
 757              	.LVL72:
 758 00ce 50B1     		cbz	r0, .L76
 759              	.LBB104:
 760              	.LBB105:
 761              		.loc 1 11 0
 762 00d0 2378     		ldrb	r3, [r4]	@ zero_extendqisi2
 763 00d2 682B     		cmp	r3, #104
 764              		.loc 1 12 0
 765 00d4 0CBF     		ite	eq
 766 00d6 6920     		moveq	r0, #105
 767              	.LVL73:
 768              		.loc 1 14 0
 769 00d8 6820     		movne	r0, #104
 770              	.LBE105:
 771              	.LBE104:
 772              		.loc 1 180 0
 773 00da 8C22     		movs	r2, #140
 774 00dc 2521     		movs	r1, #37
 775              	.LBB107:
 776              	.LBB106:
 777              		.loc 1 14 0
 778 00de 2070     		strb	r0, [r4]
 779              	.LBE106:
 780              	.LBE107:
 781              		.loc 1 180 0
 782 00e0 FFF7FEFF 		bl	write_reg
 783              	.LVL74:
 784 00e4 58BB     		cbnz	r0, .L94
 785              	.L76:
 786              		.loc 1 184 0
 787 00e6 0120     		movs	r0, #1
 788              	.LVL75:
 789 00e8 FFF7FEFF 		bl	chThdSleep
 790              	.LVL76:
 791              		.loc 1 187 0
 792 00ec 0322     		movs	r2, #3
 793 00ee 2621     		movs	r1, #38
 794 00f0 2078     		ldrb	r0, [r4]	@ zero_extendqisi2
 795 00f2 FFF7FEFF 		bl	write_reg
 796              	.LVL77:
 797 00f6 50B1     		cbz	r0, .L80
 798              	.LBB108:
ARM GAS  /var/folders/rv/m1ccwdpx5lz8hgtj5gzs6dn40000gn/T//ccyJVOxo.s 			page 15


 799              	.LBB109:
 800              		.loc 1 11 0
 801 00f8 2378     		ldrb	r3, [r4]	@ zero_extendqisi2
 802 00fa 682B     		cmp	r3, #104
 803              		.loc 1 12 0
 804 00fc 0CBF     		ite	eq
 805 00fe 6920     		moveq	r0, #105
 806              	.LVL78:
 807              		.loc 1 14 0
 808 0100 6820     		movne	r0, #104
 809              	.LBE109:
 810              	.LBE108:
 811              		.loc 1 189 0
 812 0102 0322     		movs	r2, #3
 813 0104 2621     		movs	r1, #38
 814              	.LBB111:
 815              	.LBB110:
 816              		.loc 1 14 0
 817 0106 2070     		strb	r0, [r4]
 818              	.LBE110:
 819              	.LBE111:
 820              		.loc 1 189 0
 821 0108 FFF7FEFF 		bl	write_reg
 822              	.LVL79:
 823 010c B8B9     		cbnz	r0, .L94
 824              	.L80:
 825              		.loc 1 193 0
 826 010e 0120     		movs	r0, #1
 827              	.LVL80:
 828 0110 FFF7FEFF 		bl	chThdSleep
 829              	.LVL81:
 830              		.loc 1 200 0
 831 0114 8722     		movs	r2, #135
 832 0116 2721     		movs	r1, #39
 833 0118 2078     		ldrb	r0, [r4]	@ zero_extendqisi2
 834 011a FFF7FEFF 		bl	write_reg
 835              	.LVL82:
 836 011e 50B1     		cbz	r0, .L84
 837              	.LBB112:
 838              	.LBB113:
 839              		.loc 1 11 0
 840 0120 2378     		ldrb	r3, [r4]	@ zero_extendqisi2
 841 0122 682B     		cmp	r3, #104
 842              		.loc 1 12 0
 843 0124 0CBF     		ite	eq
 844 0126 6920     		moveq	r0, #105
 845              	.LVL83:
 846              		.loc 1 14 0
 847 0128 6820     		movne	r0, #104
 848              	.LBE113:
 849              	.LBE112:
 850              		.loc 1 202 0
 851 012a 8722     		movs	r2, #135
 852 012c 2721     		movs	r1, #39
 853              	.LBB115:
 854              	.LBB114:
 855              		.loc 1 14 0
ARM GAS  /var/folders/rv/m1ccwdpx5lz8hgtj5gzs6dn40000gn/T//ccyJVOxo.s 			page 16


 856 012e 2070     		strb	r0, [r4]
 857              	.LBE114:
 858              	.LBE115:
 859              		.loc 1 202 0
 860 0130 FFF7FEFF 		bl	write_reg
 861              	.LVL84:
 862 0134 18B9     		cbnz	r0, .L94
 863              	.L84:
 864              	.LVL85:
 865              		.loc 1 206 0
 866 0136 0120     		movs	r0, #1
 867 0138 FFF7FEFF 		bl	chThdSleep
 868              	.LVL86:
 869              		.loc 1 208 0
 870 013c 7FE7     		b	.L60
 871              	.LVL87:
 872              	.L94:
 873 013e 0546     		mov	r5, r0
 874 0140 7DE7     		b	.L60
 875              	.LVL88:
 876              	.L101:
 877              		.loc 1 209 0
 878 0142 FFF7FEFF 		bl	__stack_chk_fail
 879              	.LVL89:
 880              	.L103:
 881 0146 00BF     		.align	2
 882              	.L102:
 883 0148 00000000 		.word	__stack_chk_guard
 884 014c 00000000 		.word	.LANCHOR0
 885              		.cfi_endproc
 886              	.LFE260:
 887              		.size	mpu9250_magnetometer_setup, .-mpu9250_magnetometer_setup
 888              		.section	.text.mpu9250_ping,"ax",%progbits
 889              		.align	1
 890              		.p2align 4,,15
 891              		.global	mpu9250_ping
 892              		.syntax unified
 893              		.thumb
 894              		.thumb_func
 895              		.fpu fpv4-sp-d16
 896              		.type	mpu9250_ping, %function
 897              	mpu9250_ping:
 898              	.LFB261:
 899              		.loc 1 211 0
 900              		.cfi_startproc
 901              		@ args = 0, pretend = 0, frame = 8
 902              		@ frame_needed = 0, uses_anonymous_args = 0
 903 0000 10B5     		push	{r4, lr}
 904              		.cfi_def_cfa_offset 8
 905              		.cfi_offset 4, -8
 906              		.cfi_offset 14, -4
 907 0002 82B0     		sub	sp, sp, #8
 908              		.cfi_def_cfa_offset 16
 909              		.loc 1 212 0
 910 0004 02A8     		add	r0, sp, #8
 911              		.loc 1 211 0
 912 0006 0C4C     		ldr	r4, .L108
ARM GAS  /var/folders/rv/m1ccwdpx5lz8hgtj5gzs6dn40000gn/T//ccyJVOxo.s 			page 17


 913              		.loc 1 212 0
 914 0008 0023     		movs	r3, #0
 915 000a 00F8053D 		strb	r3, [r0, #-5]!
 916              		.loc 1 211 0
 917 000e 2368     		ldr	r3, [r4]
 918 0010 0193     		str	r3, [sp, #4]
 919              		.loc 1 213 0
 920 0012 FFF7FEFF 		bl	mpu9250_read_id
 921              	.LVL90:
 922              		.loc 1 214 0
 923 0016 9DF80300 		ldrb	r0, [sp, #3]	@ zero_extendqisi2
 924              		.loc 1 215 0
 925 001a 019A     		ldr	r2, [sp, #4]
 926 001c 2368     		ldr	r3, [r4]
 927 001e A0F16800 		sub	r0, #104
 928 0022 B0FA80F0 		clz	r0, r0
 929 0026 9A42     		cmp	r2, r3
 930 0028 4FEA5010 		lsr	r0, r0, #5
 931 002c 01D1     		bne	.L107
 932 002e 02B0     		add	sp, sp, #8
 933              		.cfi_remember_state
 934              		.cfi_def_cfa_offset 8
 935              		@ sp needed
 936 0030 10BD     		pop	{r4, pc}
 937              	.L107:
 938              		.cfi_restore_state
 939 0032 FFF7FEFF 		bl	__stack_chk_fail
 940              	.LVL91:
 941              	.L109:
 942 0036 00BF     		.align	2
 943              	.L108:
 944 0038 00000000 		.word	__stack_chk_guard
 945              		.cfi_endproc
 946              	.LFE261:
 947              		.size	mpu9250_ping, .-mpu9250_ping
 948              		.section	.text.mpu9250_read,"ax",%progbits
 949              		.align	1
 950              		.p2align 4,,15
 951              		.global	mpu9250_read
 952              		.syntax unified
 953              		.thumb
 954              		.thumb_func
 955              		.fpu fpv4-sp-d16
 956              		.type	mpu9250_read, %function
 957              	mpu9250_read:
 958              	.LFB262:
 959              		.loc 1 217 0
 960              		.cfi_startproc
 961              		@ args = 0, pretend = 0, frame = 32
 962              		@ frame_needed = 0, uses_anonymous_args = 0
 963              	.LVL92:
 964 0000 2DE9F041 		push	{r4, r5, r6, r7, r8, lr}
 965              		.cfi_def_cfa_offset 24
 966              		.cfi_offset 4, -24
 967              		.cfi_offset 5, -20
 968              		.cfi_offset 6, -16
 969              		.cfi_offset 7, -12
ARM GAS  /var/folders/rv/m1ccwdpx5lz8hgtj5gzs6dn40000gn/T//ccyJVOxo.s 			page 18


 970              		.cfi_offset 8, -8
 971              		.cfi_offset 14, -4
 972 0004 2E4E     		ldr	r6, .L126
 973              		.loc 1 221 0
 974 0006 2F4F     		ldr	r7, .L126+4
 975              		.loc 1 217 0
 976 0008 3368     		ldr	r3, [r6]
 977 000a 88B0     		sub	sp, sp, #32
 978              		.cfi_def_cfa_offset 56
 979              		.loc 1 217 0
 980 000c 0446     		mov	r4, r0
 981 000e 0793     		str	r3, [sp, #28]
 982              	.LVL93:
 983 0010 0D46     		mov	r5, r1
 984 0012 9046     		mov	r8, r2
 985              		.loc 1 221 0
 986 0014 3878     		ldrb	r0, [r7]	@ zero_extendqisi2
 987              	.LVL94:
 988 0016 01AA     		add	r2, sp, #4
 989              	.LVL95:
 990 0018 1623     		movs	r3, #22
 991 001a 3A21     		movs	r1, #58
 992              	.LVL96:
 993 001c FFF7FEFF 		bl	read_reg_multi
 994              	.LVL97:
 995 0020 58B1     		cbz	r0, .L117
 996              	.LBB116:
 997              	.LBB117:
 998              		.loc 1 11 0
 999 0022 3B78     		ldrb	r3, [r7]	@ zero_extendqisi2
 1000 0024 682B     		cmp	r3, #104
 1001              		.loc 1 12 0
 1002 0026 0CBF     		ite	eq
 1003 0028 6920     		moveq	r0, #105
 1004              	.LVL98:
 1005              		.loc 1 14 0
 1006 002a 6820     		movne	r0, #104
 1007              	.LBE117:
 1008              	.LBE116:
 1009              		.loc 1 223 0
 1010 002c 01AA     		add	r2, sp, #4
 1011 002e 1623     		movs	r3, #22
 1012 0030 3A21     		movs	r1, #58
 1013              	.LBB119:
 1014              	.LBB118:
 1015              		.loc 1 14 0
 1016 0032 3870     		strb	r0, [r7]
 1017              	.LBE118:
 1018              	.LBE119:
 1019              		.loc 1 223 0
 1020 0034 FFF7FEFF 		bl	read_reg_multi
 1021              	.LVL99:
 1022 0038 B0BB     		cbnz	r0, .L116
 1023              	.L117:
 1024              		.loc 1 228 0
 1025 003a B8F1000F 		cmp	r8, #0
 1026 003e 03D0     		beq	.L113
ARM GAS  /var/folders/rv/m1ccwdpx5lz8hgtj5gzs6dn40000gn/T//ccyJVOxo.s 			page 19


 1027              		.loc 1 229 0
 1028 0040 9DF80430 		ldrb	r3, [sp, #4]	@ zero_extendqisi2
 1029 0044 88F80030 		strb	r3, [r8]
 1030              	.L113:
 1031              		.loc 1 231 0
 1032 0048 BDB1     		cbz	r5, .L118
 1033              	.LBB120:
 1034              	.LBB121:
 1035              		.loc 1 47 0
 1036 004a 9DF90730 		ldrsb	r3, [sp, #7]
 1037 004e 9DF80820 		ldrb	r2, [sp, #8]	@ zero_extendqisi2
 1038              	.LBE121:
 1039              	.LBE120:
 1040              	.LBB123:
 1041              	.LBB124:
 1042 0052 9DF90570 		ldrsb	r7, [sp, #5]
 1043 0056 9DF80610 		ldrb	r1, [sp, #6]	@ zero_extendqisi2
 1044              	.LBE124:
 1045              	.LBE123:
 1046              	.LBB126:
 1047              	.LBB127:
 1048 005a 9DF90900 		ldrsb	r0, [sp, #9]
 1049              	.LVL100:
 1050              	.LBE127:
 1051              	.LBE126:
 1052              	.LBB130:
 1053              	.LBB122:
 1054 005e 42EA0322 		orr	r2, r2, r3, lsl #8
 1055              	.LBE122:
 1056              	.LBE130:
 1057              	.LBB131:
 1058              	.LBB128:
 1059 0062 9DF80A30 		ldrb	r3, [sp, #10]	@ zero_extendqisi2
 1060              	.LBE128:
 1061              	.LBE131:
 1062              	.LBB132:
 1063              	.LBB125:
 1064 0066 41EA0721 		orr	r1, r1, r7, lsl #8
 1065              	.LBE125:
 1066              	.LBE132:
 1067              	.LBB133:
 1068              	.LBB129:
 1069 006a 43EA0023 		orr	r3, r3, r0, lsl #8
 1070              	.LBE129:
 1071              	.LBE133:
 1072              		.loc 1 233 0
 1073 006e 4942     		negs	r1, r1
 1074              		.loc 1 234 0
 1075 0070 5242     		negs	r2, r2
 1076              		.loc 1 235 0
 1077 0072 5B42     		negs	r3, r3
 1078              		.loc 1 233 0
 1079 0074 2980     		strh	r1, [r5]	@ movhi
 1080              		.loc 1 234 0
 1081 0076 6A80     		strh	r2, [r5, #2]	@ movhi
 1082              		.loc 1 235 0
 1083 0078 AB80     		strh	r3, [r5, #4]	@ movhi
ARM GAS  /var/folders/rv/m1ccwdpx5lz8hgtj5gzs6dn40000gn/T//ccyJVOxo.s 			page 20


 1084              	.L118:
 1085              		.loc 1 238 0
 1086 007a E4B1     		cbz	r4, .L120
 1087              	.LBB134:
 1088              	.LBB135:
 1089              		.loc 1 47 0
 1090 007c 9DF91100 		ldrsb	r0, [sp, #17]
 1091              	.LBE135:
 1092              	.LBE134:
 1093              	.LBB138:
 1094              	.LBB139:
 1095 0080 9DF90D70 		ldrsb	r7, [sp, #13]
 1096 0084 9DF80E10 		ldrb	r1, [sp, #14]	@ zero_extendqisi2
 1097              	.LBE139:
 1098              	.LBE138:
 1099              	.LBB141:
 1100              	.LBB142:
 1101 0088 9DF90F50 		ldrsb	r5, [sp, #15]
 1102              	.LVL101:
 1103 008c 9DF81020 		ldrb	r2, [sp, #16]	@ zero_extendqisi2
 1104              	.LBE142:
 1105              	.LBE141:
 1106              	.LBB144:
 1107              	.LBB136:
 1108 0090 9DF81230 		ldrb	r3, [sp, #18]	@ zero_extendqisi2
 1109              	.LBE136:
 1110              	.LBE144:
 1111              	.LBB145:
 1112              	.LBB140:
 1113 0094 41EA0721 		orr	r1, r1, r7, lsl #8
 1114              	.LBE140:
 1115              	.LBE145:
 1116              	.LBB146:
 1117              	.LBB137:
 1118 0098 43EA0023 		orr	r3, r3, r0, lsl #8
 1119              	.LBE137:
 1120              	.LBE146:
 1121              	.LBB147:
 1122              	.LBB143:
 1123 009c 42EA0522 		orr	r2, r2, r5, lsl #8
 1124              	.LBE143:
 1125              	.LBE147:
 1126              		.loc 1 239 0
 1127 00a0 2180     		strh	r1, [r4]	@ movhi
 1128              		.loc 1 240 0
 1129 00a2 6280     		strh	r2, [r4, #2]	@ movhi
 1130              		.loc 1 241 0
 1131 00a4 A380     		strh	r3, [r4, #4]	@ movhi
 1132              		.loc 1 244 0
 1133 00a6 0020     		movs	r0, #0
 1134              	.L116:
 1135              		.loc 1 245 0
 1136 00a8 079A     		ldr	r2, [sp, #28]
 1137 00aa 3368     		ldr	r3, [r6]
 1138 00ac 9A42     		cmp	r2, r3
 1139 00ae 04D1     		bne	.L125
 1140 00b0 08B0     		add	sp, sp, #32
ARM GAS  /var/folders/rv/m1ccwdpx5lz8hgtj5gzs6dn40000gn/T//ccyJVOxo.s 			page 21


 1141              		.cfi_remember_state
 1142              		.cfi_def_cfa_offset 24
 1143              		@ sp needed
 1144 00b2 BDE8F081 		pop	{r4, r5, r6, r7, r8, pc}
 1145              	.LVL102:
 1146              	.L120:
 1147              		.cfi_restore_state
 1148              		.loc 1 244 0
 1149 00b6 2046     		mov	r0, r4
 1150 00b8 F6E7     		b	.L116
 1151              	.LVL103:
 1152              	.L125:
 1153              		.loc 1 245 0
 1154 00ba FFF7FEFF 		bl	__stack_chk_fail
 1155              	.LVL104:
 1156              	.L127:
 1157 00be 00BF     		.align	2
 1158              	.L126:
 1159 00c0 00000000 		.word	__stack_chk_guard
 1160 00c4 00000000 		.word	.LANCHOR0
 1161              		.cfi_endproc
 1162              	.LFE262:
 1163              		.size	mpu9250_read, .-mpu9250_read
 1164              		.section	.data.imu_addr,"aw",%progbits
 1165              		.set	.LANCHOR0,. + 0
 1166              		.type	imu_addr, %object
 1167              		.size	imu_addr, 1
 1168              	imu_addr:
 1169 0000 68       		.byte	104
 1170              		.text
 1171              	.Letext0:
 1172              		.file 2 "/Users/quentin/Documents/Travail/Robotique/TP1_blinky/Tools/gcc-arm-none-eabi-7-2017-q4-m
 1173              		.file 3 "/Users/quentin/Documents/Travail/Robotique/TP1_blinky/Tools/gcc-arm-none-eabi-7-2017-q4-m
 1174              		.file 4 "/Users/quentin/Documents/Travail/Robotique/TP1_blinky/Tools/gcc-arm-none-eabi-7-2017-q4-m
 1175              		.file 5 "../../lib/e-puck2_main-processor/ChibiOS//os/rt/ports/ARMCMx/compilers/GCC/chtypes.h"
 1176              		.file 6 "../../lib/e-puck2_main-processor/ChibiOS//os/rt/include/chsystypes.h"
 1177              		.file 7 "../../lib/e-puck2_main-processor/ChibiOS//os/rt/include/chschd.h"
 1178              		.file 8 "../../lib/e-puck2_main-processor/ChibiOS//os/ext/CMSIS/include/core_cm4.h"
 1179              		.file 9 "../../lib/e-puck2_main-processor/ChibiOS//os/ext/CMSIS/ST/system_stm32f4xx.h"
 1180              		.file 10 "../../lib/e-puck2_main-processor/ChibiOS//os/ext/CMSIS/ST/stm32f407xx.h"
 1181              		.file 11 "../../lib/e-puck2_main-processor/ChibiOS//os/rt/ports/ARMCMx/chcore.h"
 1182              		.file 12 "../../lib/e-puck2_main-processor/ChibiOS//os/rt/ports/ARMCMx/chcore_v7m.h"
 1183              		.file 13 "../../lib/e-puck2_main-processor/ChibiOS//os/rt/include/chdebug.h"
 1184              		.file 14 "../../lib/e-puck2_main-processor/ChibiOS//os/rt/include/chtm.h"
 1185              		.file 15 "../../lib/e-puck2_main-processor/ChibiOS//os/rt/include/chstats.h"
 1186              		.file 16 "../../lib/e-puck2_main-processor/ChibiOS//os/rt/include/chsem.h"
 1187              		.file 17 "../../lib/e-puck2_main-processor/ChibiOS//os/rt/include/chmtx.h"
 1188              		.file 18 "../../lib/e-puck2_main-processor/ChibiOS//os/rt/include/chregistry.h"
 1189              		.file 19 "../../lib/e-puck2_main-processor/ChibiOS//os/rt/include/chevents.h"
 1190              		.file 20 "../../lib/e-puck2_main-processor/ChibiOS//os/rt/include/chqueues.h"
 1191              		.file 21 "../../lib/e-puck2_main-processor/ChibiOS//os/hal/ports/STM32/STM32F4xx/stm32_dma.h"
 1192              		.file 22 "../../lib/e-puck2_main-processor/ChibiOS//os/hal/include/hal_ioblock.h"
 1193              		.file 23 "../../lib/e-puck2_main-processor/ChibiOS//os/hal/ports/STM32/LLD/GPIOv2/pal_lld.h"
 1194              		.file 24 "../../lib/e-puck2_main-processor/ChibiOS//os/hal/include/adc.h"
 1195              		.file 25 "../../lib/e-puck2_main-processor/ChibiOS//os/hal/ports/STM32/STM32F4xx/adc_lld.h"
 1196              		.file 26 "../../lib/e-puck2_main-processor/ChibiOS//os/hal/include/can.h"
 1197              		.file 27 "../../lib/e-puck2_main-processor/ChibiOS//os/hal/ports/STM32/LLD/can_lld.h"
ARM GAS  /var/folders/rv/m1ccwdpx5lz8hgtj5gzs6dn40000gn/T//ccyJVOxo.s 			page 22


 1198              		.file 28 "../../lib/e-puck2_main-processor/ChibiOS//os/hal/include/dac.h"
 1199              		.file 29 "../../lib/e-puck2_main-processor/ChibiOS//os/hal/ports/STM32/LLD/DACv1/dac_lld.h"
 1200              		.file 30 "../../lib/e-puck2_main-processor/ChibiOS//os/hal/include/ext.h"
 1201              		.file 31 "../../lib/e-puck2_main-processor/ChibiOS//os/hal/ports/STM32/LLD/ext_lld.h"
 1202              		.file 32 "../../lib/e-puck2_main-processor/ChibiOS//os/hal/include/gpt.h"
 1203              		.file 33 "../../lib/e-puck2_main-processor/ChibiOS//os/hal/ports/STM32/LLD/TIMv1/gpt_lld.h"
 1204              		.file 34 "../../lib/e-puck2_main-processor/ChibiOS//os/hal/ports/STM32/LLD/TIMv1/stm32_tim.h"
 1205              		.file 35 "../../lib/e-puck2_main-processor/ChibiOS//os/hal/include/i2c.h"
 1206              		.file 36 "../../lib/e-puck2_main-processor/ChibiOS//os/hal/ports/STM32/LLD/I2Cv1/i2c_lld.h"
 1207              		.file 37 "../../lib/e-puck2_main-processor/ChibiOS//os/hal/include/i2s.h"
 1208              		.file 38 "../../lib/e-puck2_main-processor/ChibiOS//os/hal/ports/STM32/LLD/SPIv1/i2s_lld.h"
 1209              		.file 39 "../../lib/e-puck2_main-processor/ChibiOS//os/hal/include/pwm.h"
 1210              		.file 40 "../../lib/e-puck2_main-processor/ChibiOS//os/hal/ports/STM32/LLD/TIMv1/pwm_lld.h"
 1211              		.file 41 "../../lib/e-puck2_main-processor/ChibiOS//os/hal/include/serial.h"
 1212              		.file 42 "../../lib/e-puck2_main-processor/ChibiOS//os/hal/ports/STM32/LLD/USARTv1/serial_lld.h"
 1213              		.file 43 "../../lib/e-puck2_main-processor/ChibiOS//os/hal/include/sdc.h"
 1214              		.file 44 "../../lib/e-puck2_main-processor/ChibiOS//os/hal/ports/STM32/LLD/sdc_lld.h"
 1215              		.file 45 "../../lib/e-puck2_main-processor/ChibiOS//os/hal/include/spi.h"
 1216              		.file 46 "../../lib/e-puck2_main-processor/ChibiOS//os/hal/ports/STM32/LLD/SPIv1/spi_lld.h"
 1217              		.file 47 "../../lib/e-puck2_main-processor/ChibiOS//os/hal/include/usb.h"
 1218              		.file 48 "../../lib/e-puck2_main-processor/ChibiOS//os/hal/ports/STM32/LLD/OTGv1/usb_lld.h"
 1219              		.file 49 "../../lib/e-puck2_main-processor/ChibiOS//os/hal/ports/STM32/LLD/OTGv1/stm32_otg.h"
 1220              		.file 50 "./i2c_bus.h"
 1221              		.file 51 "../../lib/e-puck2_main-processor/ChibiOS//os/rt/include/chthreads.h"