ARM GAS  /var/folders/lm/0cn7d9cx3675ck1h97jhfmgw0000gn/T//cc0sVly7.s 			page 1


   1              		.cpu cortex-m4
   2              		.eabi_attribute 27, 1
   3              		.eabi_attribute 28, 1
   4              		.eabi_attribute 20, 1
   5              		.eabi_attribute 21, 1
   6              		.eabi_attribute 23, 3
   7              		.eabi_attribute 24, 1
   8              		.eabi_attribute 25, 1
   9              		.eabi_attribute 26, 1
  10              		.eabi_attribute 30, 2
  11              		.eabi_attribute 34, 1
  12              		.eabi_attribute 18, 4
  13              		.file	"navigation.c"
  14              		.text
  15              	.Ltext0:
  16              		.cfi_sections	.debug_frame
  17              		.section	.text.chprintf.constprop.0,"ax",%progbits
  18              		.align	1
  19              		.p2align 4,,15
  20              		.syntax unified
  21              		.thumb
  22              		.thumb_func
  23              		.fpu fpv4-sp-d16
  24              		.type	chprintf.constprop.0, %function
  25              	chprintf.constprop.0:
  26              	.LFB262:
  27              		.file 1 "../../lib/e-puck2_main-processor/ChibiOS//os/hal/lib/streams/chprintf.h"
  28              		.loc 1 69 0
  29              		.cfi_startproc
  30              		@ args = 4, pretend = 12, frame = 8
  31              		@ frame_needed = 0, uses_anonymous_args = 1
  32              	.LVL0:
  33 0000 0EB4     		push	{r1, r2, r3}
  34              		.cfi_def_cfa_offset 12
  35              		.cfi_offset 1, -12
  36              		.cfi_offset 2, -8
  37              		.cfi_offset 3, -4
  38 0002 10B5     		push	{r4, lr}
  39              		.cfi_def_cfa_offset 20
  40              		.cfi_offset 4, -20
  41              		.cfi_offset 14, -16
  42 0004 0A4C     		ldr	r4, .L6
  43              		.loc 1 74 0
  44 0006 0B49     		ldr	r1, .L6+4
  45              		.loc 1 69 0
  46 0008 2368     		ldr	r3, [r4]
  47              		.loc 1 74 0
  48 000a 0B48     		ldr	r0, .L6+8
  49              	.LVL1:
  50              		.loc 1 69 0
  51 000c 83B0     		sub	sp, sp, #12
  52              		.cfi_def_cfa_offset 32
  53              		.loc 1 69 0
  54 000e 0193     		str	r3, [sp, #4]
  55              	.LVL2:
  56              		.loc 1 73 0
  57 0010 06AB     		add	r3, sp, #24
ARM GAS  /var/folders/lm/0cn7d9cx3675ck1h97jhfmgw0000gn/T//cc0sVly7.s 			page 2


  58              		.loc 1 74 0
  59 0012 1A46     		mov	r2, r3
  60              		.loc 1 73 0
  61 0014 0093     		str	r3, [sp]
  62              		.loc 1 74 0
  63 0016 FFF7FEFF 		bl	chvprintf
  64              	.LVL3:
  65              		.loc 1 78 0
  66 001a 019A     		ldr	r2, [sp, #4]
  67 001c 2368     		ldr	r3, [r4]
  68 001e 9A42     		cmp	r2, r3
  69 0020 04D1     		bne	.L5
  70 0022 03B0     		add	sp, sp, #12
  71              		.cfi_remember_state
  72              		.cfi_def_cfa_offset 20
  73              		@ sp needed
  74 0024 BDE81040 		pop	{r4, lr}
  75              		.cfi_restore 14
  76              		.cfi_restore 4
  77              		.cfi_def_cfa_offset 12
  78 0028 03B0     		add	sp, sp, #12
  79              		.cfi_restore 3
  80              		.cfi_restore 2
  81              		.cfi_restore 1
  82              		.cfi_def_cfa_offset 0
  83 002a 7047     		bx	lr
  84              	.L5:
  85              		.cfi_restore_state
  86 002c FFF7FEFF 		bl	__stack_chk_fail
  87              	.LVL4:
  88              	.L7:
  89              		.align	2
  90              	.L6:
  91 0030 00000000 		.word	__stack_chk_guard
  92 0034 00000000 		.word	.LC0
  93 0038 00000000 		.word	SD3
  94              		.cfi_endproc
  95              	.LFE262:
  96              		.size	chprintf.constprop.0, .-chprintf.constprop.0
  97              		.section	.text.navigation_thd,"ax",%progbits
  98              		.align	1
  99              		.p2align 4,,15
 100              		.syntax unified
 101              		.thumb
 102              		.thumb_func
 103              		.fpu fpv4-sp-d16
 104              		.type	navigation_thd, %function
 105              	navigation_thd:
 106              	.LFB260:
 107              		.file 2 "navigation.c"
 108              		.loc 2 21 0
 109              		.cfi_startproc
 110              		@ Volatile: function does not return.
 111              		@ args = 0, pretend = 0, frame = 8
 112              		@ frame_needed = 0, uses_anonymous_args = 0
 113              	.LVL5:
 114 0000 00B5     		push	{lr}
ARM GAS  /var/folders/lm/0cn7d9cx3675ck1h97jhfmgw0000gn/T//cc0sVly7.s 			page 3


 115              		.cfi_def_cfa_offset 4
 116              		.cfi_offset 14, -4
 117              	.LBB4:
 118              	.LBB5:
 119              		.file 3 "../../lib/e-puck2_main-processor/ChibiOS//os/rt/include/chregistry.h"
 120              		.loc 3 135 0
 121 0002 0B4A     		ldr	r2, .L13
 122              	.LBE5:
 123              	.LBE4:
 124              		.loc 2 21 0
 125 0004 0B4B     		ldr	r3, .L13+4
 126              	.LBB8:
 127              	.LBB6:
 128              		.loc 3 135 0
 129 0006 9269     		ldr	r2, [r2, #24]
 130 0008 0B49     		ldr	r1, .L13+8
 131              	.LBE6:
 132              	.LBE8:
 133              		.loc 2 21 0
 134 000a 1B68     		ldr	r3, [r3]
 135              		.loc 2 28 0
 136 000c 0B4D     		ldr	r5, .L13+12
 137 000e 0C4C     		ldr	r4, .L13+16
 138              	.LBB9:
 139              	.LBB7:
 140              		.loc 3 135 0
 141 0010 9161     		str	r1, [r2, #24]
 142              	.LBE7:
 143              	.LBE9:
 144              		.loc 2 21 0
 145 0012 83B0     		sub	sp, sp, #12
 146              		.cfi_def_cfa_offset 16
 147              		.loc 2 21 0
 148 0014 0193     		str	r3, [sp, #4]
 149              	.LVL6:
 150 0016 02E0     		b	.L10
 151              	.LVL7:
 152              	.L9:
 153              		.loc 2 30 0
 154 0018 6420     		movs	r0, #100
 155 001a FFF7FEFF 		bl	chThdSleep
 156              	.LVL8:
 157              	.L10:
 158              		.loc 2 27 0
 159 001e FFF7FEFF 		bl	VL53L0X_get_dist_mm
 160              	.LVL9:
 161 0022 1428     		cmp	r0, #20
 162 0024 F8D9     		bls	.L9
 163              		.loc 2 28 0
 164 0026 2946     		mov	r1, r5
 165 0028 2046     		mov	r0, r4
 166 002a FFF7FEFF 		bl	chprintf.constprop.0
 167              	.LVL10:
 168 002e F3E7     		b	.L9
 169              	.L14:
 170              		.align	2
 171              	.L13:
ARM GAS  /var/folders/lm/0cn7d9cx3675ck1h97jhfmgw0000gn/T//cc0sVly7.s 			page 4


 172 0030 00000000 		.word	ch
 173 0034 00000000 		.word	__stack_chk_guard
 174 0038 00000000 		.word	.LANCHOR0
 175 003c 00000000 		.word	.LC0
 176 0040 00000000 		.word	SD3
 177              		.cfi_endproc
 178              	.LFE260:
 179              		.size	navigation_thd, .-navigation_thd
 180              		.section	.text.navigation_start,"ax",%progbits
 181              		.align	1
 182              		.p2align 4,,15
 183              		.global	navigation_start
 184              		.syntax unified
 185              		.thumb
 186              		.thumb_func
 187              		.fpu fpv4-sp-d16
 188              		.type	navigation_start, %function
 189              	navigation_start:
 190              	.LFB261:
 191              		.loc 2 34 0
 192              		.cfi_startproc
 193              		@ args = 0, pretend = 0, frame = 8
 194              		@ frame_needed = 0, uses_anonymous_args = 0
 195 0000 10B5     		push	{r4, lr}
 196              		.cfi_def_cfa_offset 8
 197              		.cfi_offset 4, -8
 198              		.cfi_offset 14, -4
 199 0002 0A4C     		ldr	r4, .L19
 200              		.loc 2 36 0
 201 0004 0A4B     		ldr	r3, .L19+4
 202              		.loc 2 34 0
 203 0006 2268     		ldr	r2, [r4]
 204              		.loc 2 36 0
 205 0008 0A48     		ldr	r0, .L19+8
 206              		.loc 2 34 0
 207 000a 84B0     		sub	sp, sp, #16
 208              		.cfi_def_cfa_offset 24
 209              		.loc 2 36 0
 210 000c 4FF45E71 		mov	r1, #888
 211              		.loc 2 34 0
 212 0010 0392     		str	r2, [sp, #12]
 213              		.loc 2 36 0
 214 0012 0022     		movs	r2, #0
 215 0014 0092     		str	r2, [sp]
 216 0016 4122     		movs	r2, #65
 217 0018 FFF7FEFF 		bl	chThdCreateStatic
 218              	.LVL11:
 219              		.loc 2 41 0
 220 001c 039A     		ldr	r2, [sp, #12]
 221 001e 2368     		ldr	r3, [r4]
 222 0020 9A42     		cmp	r2, r3
 223 0022 01D1     		bne	.L18
 224 0024 04B0     		add	sp, sp, #16
 225              		.cfi_remember_state
 226              		.cfi_def_cfa_offset 8
 227              		@ sp needed
 228 0026 10BD     		pop	{r4, pc}
ARM GAS  /var/folders/lm/0cn7d9cx3675ck1h97jhfmgw0000gn/T//cc0sVly7.s 			page 5


 229              	.L18:
 230              		.cfi_restore_state
 231 0028 FFF7FEFF 		bl	__stack_chk_fail
 232              	.LVL12:
 233              	.L20:
 234              		.align	2
 235              	.L19:
 236 002c 00000000 		.word	__stack_chk_guard
 237 0030 00000000 		.word	navigation_thd
 238 0034 00000000 		.word	.LANCHOR1
 239              		.cfi_endproc
 240              	.LFE261:
 241              		.size	navigation_start, .-navigation_start
 242              		.section	.bss.navigation_thd_wa,"aw",%nobits
 243              		.align	3
 244              		.set	.LANCHOR1,. + 0
 245              		.type	navigation_thd_wa, %object
 246              		.size	navigation_thd_wa, 888
 247              	navigation_thd_wa:
 248 0000 00000000 		.space	888
 248      00000000 
 248      00000000 
 248      00000000 
 248      00000000 
 249              		.section	.rodata.__FUNCTION__.11747,"a",%progbits
 250              		.align	2
 251              		.set	.LANCHOR0,. + 0
 252              		.type	__FUNCTION__.11747, %object
 253              		.size	__FUNCTION__.11747, 15
 254              	__FUNCTION__.11747:
 255 0000 6E617669 		.ascii	"navigation_thd\000"
 255      67617469 
 255      6F6E5F74 
 255      686400
 256              		.section	.rodata.chprintf.constprop.0.str1.4,"aMS",%progbits,1
 257              		.align	2
 258              	.LC0:
 259 0000 74727565 		.ascii	"true\000"
 259      00
 260              		.text
 261              	.Letext0:
 262              		.file 4 "/Users/jonathanwei/Desktop/Robotique/Tools/gcc-arm-none-eabi-7-2017-q4-major/lib/gcc/arm-
 263              		.file 5 "/Users/jonathanwei/Desktop/Robotique/Tools/gcc-arm-none-eabi-7-2017-q4-major/arm-none-eab
 264              		.file 6 "/Users/jonathanwei/Desktop/Robotique/Tools/gcc-arm-none-eabi-7-2017-q4-major/arm-none-eab
 265              		.file 7 "../../lib/e-puck2_main-processor/ChibiOS//os/rt/ports/ARMCMx/compilers/GCC/chtypes.h"
 266              		.file 8 "../../lib/e-puck2_main-processor/ChibiOS//os/rt/include/chsystypes.h"
 267              		.file 9 "../../lib/e-puck2_main-processor/ChibiOS//os/rt/include/chschd.h"
 268              		.file 10 "../../lib/e-puck2_main-processor/ChibiOS//os/ext/CMSIS/include/core_cm4.h"
 269              		.file 11 "../../lib/e-puck2_main-processor/ChibiOS//os/ext/CMSIS/ST/system_stm32f4xx.h"
 270              		.file 12 "../../lib/e-puck2_main-processor/ChibiOS//os/ext/CMSIS/ST/stm32f407xx.h"
 271              		.file 13 "../../lib/e-puck2_main-processor/ChibiOS//os/rt/ports/ARMCMx/chcore.h"
 272              		.file 14 "../../lib/e-puck2_main-processor/ChibiOS//os/rt/ports/ARMCMx/chcore_v7m.h"
 273              		.file 15 "../../lib/e-puck2_main-processor/ChibiOS//os/rt/include/chdebug.h"
 274              		.file 16 "../../lib/e-puck2_main-processor/ChibiOS//os/rt/include/chtm.h"
 275              		.file 17 "../../lib/e-puck2_main-processor/ChibiOS//os/rt/include/chstats.h"
 276              		.file 18 "../../lib/e-puck2_main-processor/ChibiOS//os/rt/include/chsem.h"
 277              		.file 19 "../../lib/e-puck2_main-processor/ChibiOS//os/rt/include/chmtx.h"
ARM GAS  /var/folders/lm/0cn7d9cx3675ck1h97jhfmgw0000gn/T//cc0sVly7.s 			page 6


 278              		.file 20 "../../lib/e-puck2_main-processor/ChibiOS//os/rt/include/chevents.h"
 279              		.file 21 "../../lib/e-puck2_main-processor/ChibiOS//os/rt/include/chqueues.h"
 280              		.file 22 "../../lib/e-puck2_main-processor/ChibiOS//os/rt/include/chstreams.h"
 281              		.file 23 "../../lib/e-puck2_main-processor/ChibiOS//os/hal/ports/STM32/STM32F4xx/stm32_dma.h"
 282              		.file 24 "../../lib/e-puck2_main-processor/ChibiOS//os/hal/include/hal_ioblock.h"
 283              		.file 25 "../../lib/e-puck2_main-processor/ChibiOS//os/hal/ports/STM32/LLD/GPIOv2/pal_lld.h"
 284              		.file 26 "../../lib/e-puck2_main-processor/ChibiOS//os/hal/include/adc.h"
 285              		.file 27 "../../lib/e-puck2_main-processor/ChibiOS//os/hal/ports/STM32/STM32F4xx/adc_lld.h"
 286              		.file 28 "../../lib/e-puck2_main-processor/ChibiOS//os/hal/include/can.h"
 287              		.file 29 "../../lib/e-puck2_main-processor/ChibiOS//os/hal/ports/STM32/LLD/can_lld.h"
 288              		.file 30 "../../lib/e-puck2_main-processor/ChibiOS//os/hal/include/dac.h"
 289              		.file 31 "../../lib/e-puck2_main-processor/ChibiOS//os/hal/ports/STM32/LLD/DACv1/dac_lld.h"
 290              		.file 32 "../../lib/e-puck2_main-processor/ChibiOS//os/hal/include/ext.h"
 291              		.file 33 "../../lib/e-puck2_main-processor/ChibiOS//os/hal/ports/STM32/LLD/ext_lld.h"
 292              		.file 34 "../../lib/e-puck2_main-processor/ChibiOS//os/hal/include/gpt.h"
 293              		.file 35 "../../lib/e-puck2_main-processor/ChibiOS//os/hal/ports/STM32/LLD/TIMv1/gpt_lld.h"
 294              		.file 36 "../../lib/e-puck2_main-processor/ChibiOS//os/hal/ports/STM32/LLD/TIMv1/stm32_tim.h"
 295              		.file 37 "../../lib/e-puck2_main-processor/ChibiOS//os/hal/include/i2c.h"
 296              		.file 38 "../../lib/e-puck2_main-processor/ChibiOS//os/hal/ports/STM32/LLD/I2Cv1/i2c_lld.h"
 297              		.file 39 "../../lib/e-puck2_main-processor/ChibiOS//os/hal/include/i2s.h"
 298              		.file 40 "../../lib/e-puck2_main-processor/ChibiOS//os/hal/ports/STM32/LLD/SPIv1/i2s_lld.h"
 299              		.file 41 "../../lib/e-puck2_main-processor/ChibiOS//os/hal/include/pwm.h"
 300              		.file 42 "../../lib/e-puck2_main-processor/ChibiOS//os/hal/ports/STM32/LLD/TIMv1/pwm_lld.h"
 301              		.file 43 "../../lib/e-puck2_main-processor/ChibiOS//os/hal/include/serial.h"
 302              		.file 44 "../../lib/e-puck2_main-processor/ChibiOS//os/hal/ports/STM32/LLD/USARTv1/serial_lld.h"
 303              		.file 45 "../../lib/e-puck2_main-processor/ChibiOS//os/hal/include/sdc.h"
 304              		.file 46 "../../lib/e-puck2_main-processor/ChibiOS//os/hal/ports/STM32/LLD/sdc_lld.h"
 305              		.file 47 "../../lib/e-puck2_main-processor/ChibiOS//os/hal/include/spi.h"
 306              		.file 48 "../../lib/e-puck2_main-processor/ChibiOS//os/hal/ports/STM32/LLD/SPIv1/spi_lld.h"
 307              		.file 49 "../../lib/e-puck2_main-processor/ChibiOS//os/hal/include/usb.h"
 308              		.file 50 "../../lib/e-puck2_main-processor/ChibiOS//os/hal/ports/STM32/LLD/OTGv1/usb_lld.h"
 309              		.file 51 "../../lib/e-puck2_main-processor/ChibiOS//os/hal/ports/STM32/LLD/OTGv1/stm32_otg.h"
 310              		.file 52 "/Users/jonathanwei/Desktop/Robotique/Tools/gcc-arm-none-eabi-7-2017-q4-major/lib/gcc/arm
 311              		.file 53 "<built-in>"
 312              		.file 54 "/Users/jonathanwei/Desktop/Robotique/Tools/gcc-arm-none-eabi-7-2017-q4-major/arm-none-ea
 313              		.file 55 "/Users/jonathanwei/Desktop/Robotique/Tools/gcc-arm-none-eabi-7-2017-q4-major/arm-none-ea
 314              		.file 56 "/Users/jonathanwei/Desktop/Robotique/Tools/gcc-arm-none-eabi-7-2017-q4-major/arm-none-ea
 315              		.file 57 "../../lib/e-puck2_main-processor/ChibiOS//os/rt/include/chthreads.h"
 316              		.file 58 "../../lib/e-puck2_main-processor/src/sensors/VL53L0X/VL53L0X.h"